
.//Obj/smartl_e906fd-hello_world.elf:     file format elf32-littleriscv


Disassembly of section .text:

00000000 <Reset_Handler>:
    .globl  Reset_Handler
    .type   Reset_Handler, %function
Reset_Handler:
.option push
.option norelax
    la      gp, __global_pointer$
       0:	20000197          	auipc	gp,0x20000
       4:	0c418193          	addi	gp,gp,196 # 200000c4 <__global_pointer$>
.option pop
    la      a0, Default_Handler
       8:	00000517          	auipc	a0,0x0
       c:	17850513          	addi	a0,a0,376 # 180 <Default_Handler>
    ori     a0, a0, 3
      10:	00356513          	ori	a0,a0,3
    csrw    mtvec, a0
      14:	30551073          	csrw	mtvec,a0

    la      a0, __Vectors
      18:	20000517          	auipc	a0,0x20000
      1c:	fe850513          	addi	a0,a0,-24 # 20000000 <__Vectors>
    csrw    mtvt, a0
      20:	30751073          	csrw	mtvt,a0

    la      sp, g_top_irqstack
      24:	2000a117          	auipc	sp,0x2000a
      28:	0a410113          	addi	sp,sp,164 # 2000a0c8 <g_top_irqstack>
    csrw    mscratch, sp
      2c:	34011073          	csrw	mscratch,sp

    /* Load data section */
    la      a0, __erodata
      30:	00009517          	auipc	a0,0x9
      34:	81050513          	addi	a0,a0,-2032 # 8840 <__ctor_end__>
    la      a1, __data_start__
      38:	20000597          	auipc	a1,0x20000
      3c:	fc858593          	addi	a1,a1,-56 # 20000000 <__Vectors>
    la      a2, __data_end__
      40:	20000617          	auipc	a2,0x20000
      44:	08460613          	addi	a2,a2,132 # 200000c4 <__global_pointer$>
    bgeu    a1, a2, 2f
      48:	00c5fa63          	bgeu	a1,a2,5c <Reset_Handler+0x5c>
1:
    lw      t0, (a0)
      4c:	00052283          	lw	t0,0(a0)
    sw      t0, (a1)
      50:	0055a023          	sw	t0,0(a1)
    addi    a0, a0, 4
      54:	0511                	addi	a0,a0,4
    addi    a1, a1, 4
      56:	0591                	addi	a1,a1,4
    bltu    a1, a2, 1b
      58:	fec5eae3          	bltu	a1,a2,4c <Reset_Handler+0x4c>
2:

    /* Clear bss section */
    la      a0, __bss_start__
      5c:	20000517          	auipc	a0,0x20000
      60:	06c50513          	addi	a0,a0,108 # 200000c8 <__bss_start__>
    la      a1, __bss_end__
      64:	2000c597          	auipc	a1,0x2000c
      68:	98858593          	addi	a1,a1,-1656 # 2000b9ec <__bss_end__>
    bgeu    a0, a1, 2f
      6c:	00b57763          	bgeu	a0,a1,7a <Reset_Handler+0x7a>
1:
    sw      zero, (a0)
      70:	00052023          	sw	zero,0(a0)
    addi    a0, a0, 4
      74:	0511                	addi	a0,a0,4
    bltu    a0, a1, 1b
      76:	feb56de3          	bltu	a0,a1,70 <Reset_Handler+0x70>
2:

#ifndef __NO_SYSTEM_INIT
    jal     SystemInit
      7a:	3f1030ef          	jal	ra,3c6a <SystemInit>
#endif

#ifndef __NO_BOARD_INIT
    jal     board_init
      7e:	218020ef          	jal	ra,2296 <board_init>
#endif

    jal     main
      82:	47a060ef          	jal	ra,64fc <main>

00000086 <__exit>:

    .size   Reset_Handler, . - Reset_Handler

__exit:
    j      __exit
      86:	a001                	j	86 <__exit>
	...

000000c0 <trap>:

    .align  2
    .global trap
    .type   trap, %function
trap:
    la      t0, g_trap_sp
      c0:	2000a297          	auipc	t0,0x2000a
      c4:	30828293          	addi	t0,t0,776 # 2000a3c8 <g_trap_sp>
    addi    t0, t0, -132
      c8:	f7c28293          	addi	t0,t0,-132
    sw      x1, 0(t0)
      cc:	0012a023          	sw	ra,0(t0)
    sw      x2, 4(t0)
      d0:	0022a223          	sw	sp,4(t0)
    sw      x3, 8(t0)
      d4:	0032a423          	sw	gp,8(t0)
    sw      x4, 12(t0)
      d8:	0042a623          	sw	tp,12(t0)
    sw      x6, 20(t0)
      dc:	0062aa23          	sw	t1,20(t0)
    sw      x7, 24(t0)
      e0:	0072ac23          	sw	t2,24(t0)
    sw      x8, 28(t0)
      e4:	0082ae23          	sw	s0,28(t0)
    sw      x9, 32(t0)
      e8:	0292a023          	sw	s1,32(t0)
    sw      x10, 36(t0)
      ec:	02a2a223          	sw	a0,36(t0)
    sw      x11, 40(t0)
      f0:	02b2a423          	sw	a1,40(t0)
    sw      x12, 44(t0)
      f4:	02c2a623          	sw	a2,44(t0)
    sw      x13, 48(t0)
      f8:	02d2a823          	sw	a3,48(t0)
    sw      x14, 52(t0)
      fc:	02e2aa23          	sw	a4,52(t0)
    sw      x15, 56(t0)
     100:	02f2ac23          	sw	a5,56(t0)
    sw      x16, 60(t0)
     104:	0302ae23          	sw	a6,60(t0)
    sw      x17, 64(t0)
     108:	0512a023          	sw	a7,64(t0)
    sw      x18, 68(t0)
     10c:	0522a223          	sw	s2,68(t0)
    sw      x19, 72(t0)
     110:	0532a423          	sw	s3,72(t0)
    sw      x20, 76(t0)
     114:	0542a623          	sw	s4,76(t0)
    sw      x21, 80(t0)
     118:	0552a823          	sw	s5,80(t0)
    sw      x22, 84(t0)
     11c:	0562aa23          	sw	s6,84(t0)
    sw      x23, 88(t0)
     120:	0572ac23          	sw	s7,88(t0)
    sw      x24, 92(t0)
     124:	0582ae23          	sw	s8,92(t0)
    sw      x25, 96(t0)
     128:	0792a023          	sw	s9,96(t0)
    sw      x26, 100(t0)
     12c:	07a2a223          	sw	s10,100(t0)
    sw      x27, 104(t0)
     130:	07b2a423          	sw	s11,104(t0)
    sw      x28, 108(t0)
     134:	07c2a623          	sw	t3,108(t0)
    sw      x29, 112(t0)
     138:	07d2a823          	sw	t4,112(t0)
    sw      x30, 116(t0)
     13c:	07e2aa23          	sw	t5,116(t0)
    sw      x31, 120(t0)
     140:	07f2ac23          	sw	t6,120(t0)
    csrr    a0, mepc
     144:	34102573          	csrr	a0,mepc
    sw      a0, 124(t0)
     148:	06a2ae23          	sw	a0,124(t0)
    csrr    a0, mstatus
     14c:	30002573          	csrr	a0,mstatus
    sw      a0, 128(t0)
     150:	08a2a023          	sw	a0,128(t0)

    mv      a0, t0
     154:	8516                	mv	a0,t0
    lw      t0, -4(sp)
     156:	ffc12283          	lw	t0,-4(sp)
    mv      sp, a0
     15a:	812a                	mv	sp,a0
    sw      t0, 16(sp)
     15c:	c816                	sw	t0,16(sp)

    jal     trap_c
     15e:	3b9030ef          	jal	ra,3d16 <trap_c>
     162:	00000013          	nop
     166:	00000013          	nop
     16a:	00000013          	nop
     16e:	00000013          	nop
     172:	00000013          	nop
     176:	00000013          	nop
     17a:	00000013          	nop
     17e:	0001                	nop

00000180 <Default_Handler>:
    .weak   Default_Handler
    .global Default_Handler
    .type   Default_Handler, %function
Default_Handler:
    /* Check for nmi */
    addi    sp, sp, -8
     180:	1161                	addi	sp,sp,-8
    sw      t0, 0x0(sp)
     182:	c016                	sw	t0,0(sp)
    sw      t1, 0x4(sp)
     184:	c21a                	sw	t1,4(sp)
    csrr    t0, mcause
     186:	342022f3          	csrr	t0,mcause
    andi    t0, t0, 0x3FF
     18a:	3ff2f293          	andi	t0,t0,1023
    li      t1, 24
     18e:	4361                	li	t1,24
    beq     t0, t1, .NMI_Handler
     190:	00628663          	beq	t0,t1,19c <.NMI_Handler>
    lw      t0, 0x0(sp)
     194:	4282                	lw	t0,0(sp)
    lw      t1, 0x4(sp)
     196:	4312                	lw	t1,4(sp)
    addi    sp, sp, 8
     198:	0121                	addi	sp,sp,8
    j      trap
     19a:	b71d                	j	c0 <trap>

0000019c <.NMI_Handler>:

.NMI_Handler:
    lw      t0, 0x0(sp)
     19c:	4282                	lw	t0,0(sp)
    lw      t1, 0x4(sp)
     19e:	4312                	lw	t1,4(sp)
    addi    sp, sp, 8
     1a0:	0121                	addi	sp,sp,8
    j       TIM4_NMIHandler
     1a2:	5be0306f          	j	3760 <TIM4_NMIHandler>
	...

000001de <__udivdi3>:
     1de:	88aa                	mv	a7,a0
     1e0:	87ae                	mv	a5,a1
     1e2:	8832                	mv	a6,a2
     1e4:	8536                	mv	a0,a3
     1e6:	8346                	mv	t1,a7
     1e8:	20069663          	bnez	a3,3f4 <__udivdi3+0x216>
     1ec:	00008697          	auipc	a3,0x8
     1f0:	24868693          	addi	a3,a3,584 # 8434 <__clz_tab>
     1f4:	0ac5ff63          	bgeu	a1,a2,2b2 <__udivdi3+0xd4>
     1f8:	6741                	lui	a4,0x10
     1fa:	0ae67563          	bgeu	a2,a4,2a4 <__udivdi3+0xc6>
     1fe:	0ff00713          	li	a4,255
     202:	00c73733          	sltu	a4,a4,a2
     206:	070e                	slli	a4,a4,0x3
     208:	00e65533          	srl	a0,a2,a4
     20c:	96aa                	add	a3,a3,a0
     20e:	0006c683          	lbu	a3,0(a3)
     212:	02000513          	li	a0,32
     216:	9736                	add	a4,a4,a3
     218:	40e506b3          	sub	a3,a0,a4
     21c:	00e50b63          	beq	a0,a4,232 <__udivdi3+0x54>
     220:	00d795b3          	sll	a1,a5,a3
     224:	00e8d733          	srl	a4,a7,a4
     228:	00d61833          	sll	a6,a2,a3
     22c:	8dd9                	or	a1,a1,a4
     22e:	00d89333          	sll	t1,a7,a3
     232:	01085893          	srli	a7,a6,0x10
     236:	0315d6b3          	divu	a3,a1,a7
     23a:	01081613          	slli	a2,a6,0x10
     23e:	8241                	srli	a2,a2,0x10
     240:	01035793          	srli	a5,t1,0x10
     244:	0315f733          	remu	a4,a1,a7
     248:	8536                	mv	a0,a3
     24a:	02d605b3          	mul	a1,a2,a3
     24e:	0742                	slli	a4,a4,0x10
     250:	8fd9                	or	a5,a5,a4
     252:	00b7fc63          	bgeu	a5,a1,26a <__udivdi3+0x8c>
     256:	97c2                	add	a5,a5,a6
     258:	fff68513          	addi	a0,a3,-1
     25c:	0107e763          	bltu	a5,a6,26a <__udivdi3+0x8c>
     260:	00b7f563          	bgeu	a5,a1,26a <__udivdi3+0x8c>
     264:	ffe68513          	addi	a0,a3,-2
     268:	97c2                	add	a5,a5,a6
     26a:	8f8d                	sub	a5,a5,a1
     26c:	0317f733          	remu	a4,a5,a7
     270:	0342                	slli	t1,t1,0x10
     272:	01035313          	srli	t1,t1,0x10
     276:	0317d7b3          	divu	a5,a5,a7
     27a:	0742                	slli	a4,a4,0x10
     27c:	00676333          	or	t1,a4,t1
     280:	02f606b3          	mul	a3,a2,a5
     284:	863e                	mv	a2,a5
     286:	00d37b63          	bgeu	t1,a3,29c <__udivdi3+0xbe>
     28a:	9342                	add	t1,t1,a6
     28c:	fff78613          	addi	a2,a5,-1
     290:	01036663          	bltu	t1,a6,29c <__udivdi3+0xbe>
     294:	00d37463          	bgeu	t1,a3,29c <__udivdi3+0xbe>
     298:	ffe78613          	addi	a2,a5,-2
     29c:	0542                	slli	a0,a0,0x10
     29e:	8d51                	or	a0,a0,a2
     2a0:	4581                	li	a1,0
     2a2:	a85d                	j	358 <__udivdi3+0x17a>
     2a4:	01000537          	lui	a0,0x1000
     2a8:	4741                	li	a4,16
     2aa:	f4a66fe3          	bltu	a2,a0,208 <__udivdi3+0x2a>
     2ae:	4761                	li	a4,24
     2b0:	bfa1                	j	208 <__udivdi3+0x2a>
     2b2:	e601                	bnez	a2,2ba <__udivdi3+0xdc>
     2b4:	4705                	li	a4,1
     2b6:	02c75833          	divu	a6,a4,a2
     2ba:	6741                	lui	a4,0x10
     2bc:	08e87f63          	bgeu	a6,a4,35a <__udivdi3+0x17c>
     2c0:	0ff00713          	li	a4,255
     2c4:	01077363          	bgeu	a4,a6,2ca <__udivdi3+0xec>
     2c8:	4521                	li	a0,8
     2ca:	00a85733          	srl	a4,a6,a0
     2ce:	96ba                	add	a3,a3,a4
     2d0:	0006c703          	lbu	a4,0(a3)
     2d4:	02000613          	li	a2,32
     2d8:	972a                	add	a4,a4,a0
     2da:	40e606b3          	sub	a3,a2,a4
     2de:	08e61563          	bne	a2,a4,368 <__udivdi3+0x18a>
     2e2:	410787b3          	sub	a5,a5,a6
     2e6:	4585                	li	a1,1
     2e8:	01085893          	srli	a7,a6,0x10
     2ec:	01081613          	slli	a2,a6,0x10
     2f0:	8241                	srli	a2,a2,0x10
     2f2:	01035713          	srli	a4,t1,0x10
     2f6:	0317f6b3          	remu	a3,a5,a7
     2fa:	0317d7b3          	divu	a5,a5,a7
     2fe:	06c2                	slli	a3,a3,0x10
     300:	8f55                	or	a4,a4,a3
     302:	02f60e33          	mul	t3,a2,a5
     306:	853e                	mv	a0,a5
     308:	01c77c63          	bgeu	a4,t3,320 <__udivdi3+0x142>
     30c:	9742                	add	a4,a4,a6
     30e:	fff78513          	addi	a0,a5,-1
     312:	01076763          	bltu	a4,a6,320 <__udivdi3+0x142>
     316:	01c77563          	bgeu	a4,t3,320 <__udivdi3+0x142>
     31a:	ffe78513          	addi	a0,a5,-2
     31e:	9742                	add	a4,a4,a6
     320:	41c70733          	sub	a4,a4,t3
     324:	031777b3          	remu	a5,a4,a7
     328:	0342                	slli	t1,t1,0x10
     32a:	01035313          	srli	t1,t1,0x10
     32e:	03175733          	divu	a4,a4,a7
     332:	07c2                	slli	a5,a5,0x10
     334:	0067e333          	or	t1,a5,t1
     338:	02e606b3          	mul	a3,a2,a4
     33c:	863a                	mv	a2,a4
     33e:	00d37b63          	bgeu	t1,a3,354 <__udivdi3+0x176>
     342:	9342                	add	t1,t1,a6
     344:	fff70613          	addi	a2,a4,-1 # ffff <__ctor_end__+0x77bf>
     348:	01036663          	bltu	t1,a6,354 <__udivdi3+0x176>
     34c:	00d37463          	bgeu	t1,a3,354 <__udivdi3+0x176>
     350:	ffe70613          	addi	a2,a4,-2
     354:	0542                	slli	a0,a0,0x10
     356:	8d51                	or	a0,a0,a2
     358:	8082                	ret
     35a:	01000737          	lui	a4,0x1000
     35e:	4541                	li	a0,16
     360:	f6e865e3          	bltu	a6,a4,2ca <__udivdi3+0xec>
     364:	4561                	li	a0,24
     366:	b795                	j	2ca <__udivdi3+0xec>
     368:	00d81833          	sll	a6,a6,a3
     36c:	00e7d533          	srl	a0,a5,a4
     370:	00d89333          	sll	t1,a7,a3
     374:	00d797b3          	sll	a5,a5,a3
     378:	00e8d733          	srl	a4,a7,a4
     37c:	01085893          	srli	a7,a6,0x10
     380:	00f76633          	or	a2,a4,a5
     384:	03157733          	remu	a4,a0,a7
     388:	01081793          	slli	a5,a6,0x10
     38c:	83c1                	srli	a5,a5,0x10
     38e:	01065593          	srli	a1,a2,0x10
     392:	03155533          	divu	a0,a0,a7
     396:	0742                	slli	a4,a4,0x10
     398:	8f4d                	or	a4,a4,a1
     39a:	02a786b3          	mul	a3,a5,a0
     39e:	85aa                	mv	a1,a0
     3a0:	00d77c63          	bgeu	a4,a3,3b8 <__udivdi3+0x1da>
     3a4:	9742                	add	a4,a4,a6
     3a6:	fff50593          	addi	a1,a0,-1 # ffffff <__min_heap_size+0xfeffff>
     3aa:	01076763          	bltu	a4,a6,3b8 <__udivdi3+0x1da>
     3ae:	00d77563          	bgeu	a4,a3,3b8 <__udivdi3+0x1da>
     3b2:	ffe50593          	addi	a1,a0,-2
     3b6:	9742                	add	a4,a4,a6
     3b8:	40d706b3          	sub	a3,a4,a3
     3bc:	0316f733          	remu	a4,a3,a7
     3c0:	0642                	slli	a2,a2,0x10
     3c2:	8241                	srli	a2,a2,0x10
     3c4:	0316d6b3          	divu	a3,a3,a7
     3c8:	0742                	slli	a4,a4,0x10
     3ca:	02d78533          	mul	a0,a5,a3
     3ce:	00c767b3          	or	a5,a4,a2
     3d2:	8736                	mv	a4,a3
     3d4:	00a7fc63          	bgeu	a5,a0,3ec <__udivdi3+0x20e>
     3d8:	97c2                	add	a5,a5,a6
     3da:	fff68713          	addi	a4,a3,-1
     3de:	0107e763          	bltu	a5,a6,3ec <__udivdi3+0x20e>
     3e2:	00a7f563          	bgeu	a5,a0,3ec <__udivdi3+0x20e>
     3e6:	ffe68713          	addi	a4,a3,-2
     3ea:	97c2                	add	a5,a5,a6
     3ec:	05c2                	slli	a1,a1,0x10
     3ee:	8f89                	sub	a5,a5,a0
     3f0:	8dd9                	or	a1,a1,a4
     3f2:	bddd                	j	2e8 <__udivdi3+0x10a>
     3f4:	14d5e263          	bltu	a1,a3,538 <__udivdi3+0x35a>
     3f8:	6741                	lui	a4,0x10
     3fa:	02e6ff63          	bgeu	a3,a4,438 <__udivdi3+0x25a>
     3fe:	0ff00713          	li	a4,255
     402:	00d735b3          	sltu	a1,a4,a3
     406:	058e                	slli	a1,a1,0x3
     408:	00b6d533          	srl	a0,a3,a1
     40c:	00008717          	auipc	a4,0x8
     410:	02870713          	addi	a4,a4,40 # 8434 <__clz_tab>
     414:	972a                	add	a4,a4,a0
     416:	00074703          	lbu	a4,0(a4)
     41a:	02000513          	li	a0,32
     41e:	972e                	add	a4,a4,a1
     420:	40e505b3          	sub	a1,a0,a4
     424:	02e51163          	bne	a0,a4,446 <__udivdi3+0x268>
     428:	4505                	li	a0,1
     42a:	f2f6e7e3          	bltu	a3,a5,358 <__udivdi3+0x17a>
     42e:	00c8b533          	sltu	a0,a7,a2
     432:	00154513          	xori	a0,a0,1
     436:	b70d                	j	358 <__udivdi3+0x17a>
     438:	01000737          	lui	a4,0x1000
     43c:	45c1                	li	a1,16
     43e:	fce6e5e3          	bltu	a3,a4,408 <__udivdi3+0x22a>
     442:	45e1                	li	a1,24
     444:	b7d1                	j	408 <__udivdi3+0x22a>
     446:	00e65833          	srl	a6,a2,a4
     44a:	00b696b3          	sll	a3,a3,a1
     44e:	00d86833          	or	a6,a6,a3
     452:	00e7d333          	srl	t1,a5,a4
     456:	01085e93          	srli	t4,a6,0x10
     45a:	03d376b3          	remu	a3,t1,t4
     45e:	00b797b3          	sll	a5,a5,a1
     462:	00e8d733          	srl	a4,a7,a4
     466:	00b61e33          	sll	t3,a2,a1
     46a:	00f76633          	or	a2,a4,a5
     46e:	01081793          	slli	a5,a6,0x10
     472:	83c1                	srli	a5,a5,0x10
     474:	01065713          	srli	a4,a2,0x10
     478:	03d35333          	divu	t1,t1,t4
     47c:	06c2                	slli	a3,a3,0x10
     47e:	8f55                	or	a4,a4,a3
     480:	02678f33          	mul	t5,a5,t1
     484:	851a                	mv	a0,t1
     486:	01e77c63          	bgeu	a4,t5,49e <__udivdi3+0x2c0>
     48a:	9742                	add	a4,a4,a6
     48c:	fff30513          	addi	a0,t1,-1
     490:	01076763          	bltu	a4,a6,49e <__udivdi3+0x2c0>
     494:	01e77563          	bgeu	a4,t5,49e <__udivdi3+0x2c0>
     498:	ffe30513          	addi	a0,t1,-2
     49c:	9742                	add	a4,a4,a6
     49e:	41e70733          	sub	a4,a4,t5
     4a2:	03d776b3          	remu	a3,a4,t4
     4a6:	03d75733          	divu	a4,a4,t4
     4aa:	06c2                	slli	a3,a3,0x10
     4ac:	02e78333          	mul	t1,a5,a4
     4b0:	01061793          	slli	a5,a2,0x10
     4b4:	83c1                	srli	a5,a5,0x10
     4b6:	8fd5                	or	a5,a5,a3
     4b8:	863a                	mv	a2,a4
     4ba:	0067fc63          	bgeu	a5,t1,4d2 <__udivdi3+0x2f4>
     4be:	97c2                	add	a5,a5,a6
     4c0:	fff70613          	addi	a2,a4,-1 # ffffff <__min_heap_size+0xfeffff>
     4c4:	0107e763          	bltu	a5,a6,4d2 <__udivdi3+0x2f4>
     4c8:	0067f563          	bgeu	a5,t1,4d2 <__udivdi3+0x2f4>
     4cc:	ffe70613          	addi	a2,a4,-2
     4d0:	97c2                	add	a5,a5,a6
     4d2:	0542                	slli	a0,a0,0x10
     4d4:	6ec1                	lui	t4,0x10
     4d6:	8d51                	or	a0,a0,a2
     4d8:	fffe8693          	addi	a3,t4,-1 # ffff <__ctor_end__+0x77bf>
     4dc:	010e5613          	srli	a2,t3,0x10
     4e0:	01055813          	srli	a6,a0,0x10
     4e4:	406787b3          	sub	a5,a5,t1
     4e8:	00d57333          	and	t1,a0,a3
     4ec:	00de76b3          	and	a3,t3,a3
     4f0:	02d30e33          	mul	t3,t1,a3
     4f4:	02d806b3          	mul	a3,a6,a3
     4f8:	010e5713          	srli	a4,t3,0x10
     4fc:	02c30333          	mul	t1,t1,a2
     500:	9336                	add	t1,t1,a3
     502:	971a                	add	a4,a4,t1
     504:	02c80833          	mul	a6,a6,a2
     508:	00d77363          	bgeu	a4,a3,50e <__udivdi3+0x330>
     50c:	9876                	add	a6,a6,t4
     50e:	01075693          	srli	a3,a4,0x10
     512:	9836                	add	a6,a6,a3
     514:	0307e063          	bltu	a5,a6,534 <__udivdi3+0x356>
     518:	d90794e3          	bne	a5,a6,2a0 <__udivdi3+0xc2>
     51c:	67c1                	lui	a5,0x10
     51e:	17fd                	addi	a5,a5,-1
     520:	8f7d                	and	a4,a4,a5
     522:	0742                	slli	a4,a4,0x10
     524:	00fe7e33          	and	t3,t3,a5
     528:	00b898b3          	sll	a7,a7,a1
     52c:	9772                	add	a4,a4,t3
     52e:	4581                	li	a1,0
     530:	e2e8f4e3          	bgeu	a7,a4,358 <__udivdi3+0x17a>
     534:	157d                	addi	a0,a0,-1
     536:	b3ad                	j	2a0 <__udivdi3+0xc2>
     538:	4581                	li	a1,0
     53a:	4501                	li	a0,0
     53c:	bd31                	j	358 <__udivdi3+0x17a>

0000053e <__umoddi3>:
     53e:	832a                	mv	t1,a0
     540:	8832                	mv	a6,a2
     542:	87b6                	mv	a5,a3
     544:	872e                	mv	a4,a1
     546:	1c069563          	bnez	a3,710 <__umoddi3+0x1d2>
     54a:	00008697          	auipc	a3,0x8
     54e:	eea68693          	addi	a3,a3,-278 # 8434 <__clz_tab>
     552:	0ac5f663          	bgeu	a1,a2,5fe <__umoddi3+0xc0>
     556:	68c1                	lui	a7,0x10
     558:	09167c63          	bgeu	a2,a7,5f0 <__umoddi3+0xb2>
     55c:	0ff00893          	li	a7,255
     560:	00c8f363          	bgeu	a7,a2,566 <__umoddi3+0x28>
     564:	47a1                	li	a5,8
     566:	00f658b3          	srl	a7,a2,a5
     56a:	96c6                	add	a3,a3,a7
     56c:	0006c683          	lbu	a3,0(a3)
     570:	97b6                	add	a5,a5,a3
     572:	02000693          	li	a3,32
     576:	40f688b3          	sub	a7,a3,a5
     57a:	00f68c63          	beq	a3,a5,592 <__umoddi3+0x54>
     57e:	011595b3          	sll	a1,a1,a7
     582:	00f357b3          	srl	a5,t1,a5
     586:	01161833          	sll	a6,a2,a7
     58a:	00b7e733          	or	a4,a5,a1
     58e:	01131533          	sll	a0,t1,a7
     592:	01085593          	srli	a1,a6,0x10
     596:	02b777b3          	remu	a5,a4,a1
     59a:	01081613          	slli	a2,a6,0x10
     59e:	8241                	srli	a2,a2,0x10
     5a0:	01055693          	srli	a3,a0,0x10
     5a4:	02b75733          	divu	a4,a4,a1
     5a8:	07c2                	slli	a5,a5,0x10
     5aa:	8edd                	or	a3,a3,a5
     5ac:	02e60733          	mul	a4,a2,a4
     5b0:	00e6f863          	bgeu	a3,a4,5c0 <__umoddi3+0x82>
     5b4:	96c2                	add	a3,a3,a6
     5b6:	0106e563          	bltu	a3,a6,5c0 <__umoddi3+0x82>
     5ba:	00e6f363          	bgeu	a3,a4,5c0 <__umoddi3+0x82>
     5be:	96c2                	add	a3,a3,a6
     5c0:	8e99                	sub	a3,a3,a4
     5c2:	02b6f7b3          	remu	a5,a3,a1
     5c6:	0542                	slli	a0,a0,0x10
     5c8:	8141                	srli	a0,a0,0x10
     5ca:	02b6d6b3          	divu	a3,a3,a1
     5ce:	07c2                	slli	a5,a5,0x10
     5d0:	8d5d                	or	a0,a0,a5
     5d2:	02d606b3          	mul	a3,a2,a3
     5d6:	00d57863          	bgeu	a0,a3,5e6 <__umoddi3+0xa8>
     5da:	9542                	add	a0,a0,a6
     5dc:	01056563          	bltu	a0,a6,5e6 <__umoddi3+0xa8>
     5e0:	00d57363          	bgeu	a0,a3,5e6 <__umoddi3+0xa8>
     5e4:	9542                	add	a0,a0,a6
     5e6:	8d15                	sub	a0,a0,a3
     5e8:	01155533          	srl	a0,a0,a7
     5ec:	4581                	li	a1,0
     5ee:	8082                	ret
     5f0:	010008b7          	lui	a7,0x1000
     5f4:	47c1                	li	a5,16
     5f6:	f71668e3          	bltu	a2,a7,566 <__umoddi3+0x28>
     5fa:	47e1                	li	a5,24
     5fc:	b7ad                	j	566 <__umoddi3+0x28>
     5fe:	e601                	bnez	a2,606 <__umoddi3+0xc8>
     600:	4705                	li	a4,1
     602:	02c75833          	divu	a6,a4,a2
     606:	6741                	lui	a4,0x10
     608:	08e87363          	bgeu	a6,a4,68e <__umoddi3+0x150>
     60c:	0ff00713          	li	a4,255
     610:	01077363          	bgeu	a4,a6,616 <__umoddi3+0xd8>
     614:	47a1                	li	a5,8
     616:	00f85733          	srl	a4,a6,a5
     61a:	96ba                	add	a3,a3,a4
     61c:	0006c603          	lbu	a2,0(a3)
     620:	963e                	add	a2,a2,a5
     622:	02000793          	li	a5,32
     626:	40c788b3          	sub	a7,a5,a2
     62a:	06c79963          	bne	a5,a2,69c <__umoddi3+0x15e>
     62e:	410585b3          	sub	a1,a1,a6
     632:	01085693          	srli	a3,a6,0x10
     636:	01081793          	slli	a5,a6,0x10
     63a:	83c1                	srli	a5,a5,0x10
     63c:	01055613          	srli	a2,a0,0x10
     640:	02d5f733          	remu	a4,a1,a3
     644:	02d5d5b3          	divu	a1,a1,a3
     648:	0742                	slli	a4,a4,0x10
     64a:	8f51                	or	a4,a4,a2
     64c:	02b785b3          	mul	a1,a5,a1
     650:	00b77863          	bgeu	a4,a1,660 <__umoddi3+0x122>
     654:	9742                	add	a4,a4,a6
     656:	01076563          	bltu	a4,a6,660 <__umoddi3+0x122>
     65a:	00b77363          	bgeu	a4,a1,660 <__umoddi3+0x122>
     65e:	9742                	add	a4,a4,a6
     660:	40b705b3          	sub	a1,a4,a1
     664:	02d5f733          	remu	a4,a1,a3
     668:	0542                	slli	a0,a0,0x10
     66a:	8141                	srli	a0,a0,0x10
     66c:	02d5d5b3          	divu	a1,a1,a3
     670:	02b785b3          	mul	a1,a5,a1
     674:	01071793          	slli	a5,a4,0x10
     678:	8d5d                	or	a0,a0,a5
     67a:	00b57863          	bgeu	a0,a1,68a <__umoddi3+0x14c>
     67e:	9542                	add	a0,a0,a6
     680:	01056563          	bltu	a0,a6,68a <__umoddi3+0x14c>
     684:	00b57363          	bgeu	a0,a1,68a <__umoddi3+0x14c>
     688:	9542                	add	a0,a0,a6
     68a:	8d0d                	sub	a0,a0,a1
     68c:	bfb1                	j	5e8 <__umoddi3+0xaa>
     68e:	01000737          	lui	a4,0x1000
     692:	47c1                	li	a5,16
     694:	f8e861e3          	bltu	a6,a4,616 <__umoddi3+0xd8>
     698:	47e1                	li	a5,24
     69a:	bfb5                	j	616 <__umoddi3+0xd8>
     69c:	01181833          	sll	a6,a6,a7
     6a0:	00c5d6b3          	srl	a3,a1,a2
     6a4:	01085793          	srli	a5,a6,0x10
     6a8:	02f6f733          	remu	a4,a3,a5
     6ac:	011595b3          	sll	a1,a1,a7
     6b0:	00c35633          	srl	a2,t1,a2
     6b4:	8e4d                	or	a2,a2,a1
     6b6:	01081593          	slli	a1,a6,0x10
     6ba:	81c1                	srli	a1,a1,0x10
     6bc:	01131533          	sll	a0,t1,a7
     6c0:	01065313          	srli	t1,a2,0x10
     6c4:	02f6d6b3          	divu	a3,a3,a5
     6c8:	0742                	slli	a4,a4,0x10
     6ca:	00676733          	or	a4,a4,t1
     6ce:	02d586b3          	mul	a3,a1,a3
     6d2:	00d77863          	bgeu	a4,a3,6e2 <__umoddi3+0x1a4>
     6d6:	9742                	add	a4,a4,a6
     6d8:	01076563          	bltu	a4,a6,6e2 <__umoddi3+0x1a4>
     6dc:	00d77363          	bgeu	a4,a3,6e2 <__umoddi3+0x1a4>
     6e0:	9742                	add	a4,a4,a6
     6e2:	40d706b3          	sub	a3,a4,a3
     6e6:	02f6f733          	remu	a4,a3,a5
     6ea:	0642                	slli	a2,a2,0x10
     6ec:	8241                	srli	a2,a2,0x10
     6ee:	02f6d6b3          	divu	a3,a3,a5
     6f2:	0742                	slli	a4,a4,0x10
     6f4:	02d586b3          	mul	a3,a1,a3
     6f8:	00c765b3          	or	a1,a4,a2
     6fc:	00d5f863          	bgeu	a1,a3,70c <__umoddi3+0x1ce>
     700:	95c2                	add	a1,a1,a6
     702:	0105e563          	bltu	a1,a6,70c <__umoddi3+0x1ce>
     706:	00d5f363          	bgeu	a1,a3,70c <__umoddi3+0x1ce>
     70a:	95c2                	add	a1,a1,a6
     70c:	8d95                	sub	a1,a1,a3
     70e:	b715                	j	632 <__umoddi3+0xf4>
     710:	ecd5efe3          	bltu	a1,a3,5ee <__umoddi3+0xb0>
     714:	67c1                	lui	a5,0x10
     716:	04f6f463          	bgeu	a3,a5,75e <__umoddi3+0x220>
     71a:	0ff00893          	li	a7,255
     71e:	00d8b7b3          	sltu	a5,a7,a3
     722:	078e                	slli	a5,a5,0x3
     724:	00f6d8b3          	srl	a7,a3,a5
     728:	00008817          	auipc	a6,0x8
     72c:	d0c80813          	addi	a6,a6,-756 # 8434 <__clz_tab>
     730:	9846                	add	a6,a6,a7
     732:	00084883          	lbu	a7,0(a6)
     736:	98be                	add	a7,a7,a5
     738:	02000793          	li	a5,32
     73c:	41178833          	sub	a6,a5,a7
     740:	03179663          	bne	a5,a7,76c <__umoddi3+0x22e>
     744:	00b6e463          	bltu	a3,a1,74c <__umoddi3+0x20e>
     748:	00c36963          	bltu	t1,a2,75a <__umoddi3+0x21c>
     74c:	40c30533          	sub	a0,t1,a2
     750:	8d95                	sub	a1,a1,a3
     752:	00a33733          	sltu	a4,t1,a0
     756:	40e58733          	sub	a4,a1,a4
     75a:	85ba                	mv	a1,a4
     75c:	bd49                	j	5ee <__umoddi3+0xb0>
     75e:	01000837          	lui	a6,0x1000
     762:	47c1                	li	a5,16
     764:	fd06e0e3          	bltu	a3,a6,724 <__umoddi3+0x1e6>
     768:	47e1                	li	a5,24
     76a:	bf6d                	j	724 <__umoddi3+0x1e6>
     76c:	011657b3          	srl	a5,a2,a7
     770:	010696b3          	sll	a3,a3,a6
     774:	00d7ee33          	or	t3,a5,a3
     778:	0115d733          	srl	a4,a1,a7
     77c:	010e5f13          	srli	t5,t3,0x10
     780:	01061eb3          	sll	t4,a2,a6
     784:	03e77633          	remu	a2,a4,t5
     788:	010595b3          	sll	a1,a1,a6
     78c:	011357b3          	srl	a5,t1,a7
     790:	8fcd                	or	a5,a5,a1
     792:	010e1593          	slli	a1,t3,0x10
     796:	81c1                	srli	a1,a1,0x10
     798:	01031533          	sll	a0,t1,a6
     79c:	0107d693          	srli	a3,a5,0x10
     7a0:	03e75733          	divu	a4,a4,t5
     7a4:	0642                	slli	a2,a2,0x10
     7a6:	8ed1                	or	a3,a3,a2
     7a8:	02e58333          	mul	t1,a1,a4
     7ac:	863a                	mv	a2,a4
     7ae:	0066fc63          	bgeu	a3,t1,7c6 <__umoddi3+0x288>
     7b2:	96f2                	add	a3,a3,t3
     7b4:	fff70613          	addi	a2,a4,-1 # ffffff <__min_heap_size+0xfeffff>
     7b8:	01c6e763          	bltu	a3,t3,7c6 <__umoddi3+0x288>
     7bc:	0066f563          	bgeu	a3,t1,7c6 <__umoddi3+0x288>
     7c0:	ffe70613          	addi	a2,a4,-2
     7c4:	96f2                	add	a3,a3,t3
     7c6:	406686b3          	sub	a3,a3,t1
     7ca:	03e6f333          	remu	t1,a3,t5
     7ce:	03e6d6b3          	divu	a3,a3,t5
     7d2:	0342                	slli	t1,t1,0x10
     7d4:	02d58733          	mul	a4,a1,a3
     7d8:	01079593          	slli	a1,a5,0x10
     7dc:	81c1                	srli	a1,a1,0x10
     7de:	00b365b3          	or	a1,t1,a1
     7e2:	87b6                	mv	a5,a3
     7e4:	00e5fc63          	bgeu	a1,a4,7fc <__umoddi3+0x2be>
     7e8:	95f2                	add	a1,a1,t3
     7ea:	fff68793          	addi	a5,a3,-1
     7ee:	01c5e763          	bltu	a1,t3,7fc <__umoddi3+0x2be>
     7f2:	00e5f563          	bgeu	a1,a4,7fc <__umoddi3+0x2be>
     7f6:	ffe68793          	addi	a5,a3,-2
     7fa:	95f2                	add	a1,a1,t3
     7fc:	0642                	slli	a2,a2,0x10
     7fe:	6f41                	lui	t5,0x10
     800:	8e5d                	or	a2,a2,a5
     802:	ffff0693          	addi	a3,t5,-1 # ffff <__ctor_end__+0x77bf>
     806:	00d67333          	and	t1,a2,a3
     80a:	8d99                	sub	a1,a1,a4
     80c:	8241                	srli	a2,a2,0x10
     80e:	010ed713          	srli	a4,t4,0x10
     812:	00def6b3          	and	a3,t4,a3
     816:	02d307b3          	mul	a5,t1,a3
     81a:	02d606b3          	mul	a3,a2,a3
     81e:	02e30333          	mul	t1,t1,a4
     822:	02e60633          	mul	a2,a2,a4
     826:	9336                	add	t1,t1,a3
     828:	0107d713          	srli	a4,a5,0x10
     82c:	971a                	add	a4,a4,t1
     82e:	00d77363          	bgeu	a4,a3,834 <__umoddi3+0x2f6>
     832:	967a                	add	a2,a2,t5
     834:	01075693          	srli	a3,a4,0x10
     838:	96b2                	add	a3,a3,a2
     83a:	6641                	lui	a2,0x10
     83c:	167d                	addi	a2,a2,-1
     83e:	8f71                	and	a4,a4,a2
     840:	0742                	slli	a4,a4,0x10
     842:	8ff1                	and	a5,a5,a2
     844:	97ba                	add	a5,a5,a4
     846:	00d5e663          	bltu	a1,a3,852 <__umoddi3+0x314>
     84a:	00d59b63          	bne	a1,a3,860 <__umoddi3+0x322>
     84e:	00f57963          	bgeu	a0,a5,860 <__umoddi3+0x322>
     852:	41d78633          	sub	a2,a5,t4
     856:	00c7b7b3          	sltu	a5,a5,a2
     85a:	97f2                	add	a5,a5,t3
     85c:	8e9d                	sub	a3,a3,a5
     85e:	87b2                	mv	a5,a2
     860:	40f507b3          	sub	a5,a0,a5
     864:	00f53533          	sltu	a0,a0,a5
     868:	8d95                	sub	a1,a1,a3
     86a:	8d89                	sub	a1,a1,a0
     86c:	011598b3          	sll	a7,a1,a7
     870:	0107d533          	srl	a0,a5,a6
     874:	00a8e533          	or	a0,a7,a0
     878:	0105d5b3          	srl	a1,a1,a6
     87c:	bb8d                	j	5ee <__umoddi3+0xb0>

0000087e <__adddf3>:
     87e:	00100837          	lui	a6,0x100
     882:	187d                	addi	a6,a6,-1
     884:	1101                	addi	sp,sp,-32
     886:	00b877b3          	and	a5,a6,a1
     88a:	0145d713          	srli	a4,a1,0x14
     88e:	00d87833          	and	a6,a6,a3
     892:	0146d313          	srli	t1,a3,0x14
     896:	cc22                	sw	s0,24(sp)
     898:	078e                	slli	a5,a5,0x3
     89a:	7ff77413          	andi	s0,a4,2047
     89e:	01d55713          	srli	a4,a0,0x1d
     8a2:	080e                	slli	a6,a6,0x3
     8a4:	ca26                	sw	s1,20(sp)
     8a6:	8fd9                	or	a5,a5,a4
     8a8:	01f5d493          	srli	s1,a1,0x1f
     8ac:	01d65713          	srli	a4,a2,0x1d
     8b0:	7ff37313          	andi	t1,t1,2047
     8b4:	ce06                	sw	ra,28(sp)
     8b6:	c84a                	sw	s2,16(sp)
     8b8:	c64e                	sw	s3,12(sp)
     8ba:	82fd                	srli	a3,a3,0x1f
     8bc:	01076733          	or	a4,a4,a6
     8c0:	00351593          	slli	a1,a0,0x3
     8c4:	060e                	slli	a2,a2,0x3
     8c6:	40640833          	sub	a6,s0,t1
     8ca:	22d49863          	bne	s1,a3,afa <__adddf3+0x27c>
     8ce:	0f005363          	blez	a6,9b4 <__adddf3+0x136>
     8d2:	02031863          	bnez	t1,902 <__adddf3+0x84>
     8d6:	00c766b3          	or	a3,a4,a2
     8da:	58068763          	beqz	a3,e68 <__adddf3+0x5ea>
     8de:	fff80513          	addi	a0,a6,-1 # fffff <__min_heap_size+0xeffff>
     8e2:	e909                	bnez	a0,8f4 <__adddf3+0x76>
     8e4:	962e                	add	a2,a2,a1
     8e6:	00b63533          	sltu	a0,a2,a1
     8ea:	97ba                	add	a5,a5,a4
     8ec:	97aa                	add	a5,a5,a0
     8ee:	85b2                	mv	a1,a2
     8f0:	4405                	li	s0,1
     8f2:	a8b9                	j	950 <__adddf3+0xd2>
     8f4:	7ff00693          	li	a3,2047
     8f8:	00d81d63          	bne	a6,a3,912 <__adddf3+0x94>
     8fc:	7ff00413          	li	s0,2047
     900:	a24d                	j	aa2 <__adddf3+0x224>
     902:	7ff00693          	li	a3,2047
     906:	18d40e63          	beq	s0,a3,aa2 <__adddf3+0x224>
     90a:	008006b7          	lui	a3,0x800
     90e:	8f55                	or	a4,a4,a3
     910:	8542                	mv	a0,a6
     912:	03800693          	li	a3,56
     916:	08a6cb63          	blt	a3,a0,9ac <__adddf3+0x12e>
     91a:	46fd                	li	a3,31
     91c:	06a6c263          	blt	a3,a0,980 <__adddf3+0x102>
     920:	02000813          	li	a6,32
     924:	40a80833          	sub	a6,a6,a0
     928:	010716b3          	sll	a3,a4,a6
     92c:	00a658b3          	srl	a7,a2,a0
     930:	01061633          	sll	a2,a2,a6
     934:	0116e6b3          	or	a3,a3,a7
     938:	00c03633          	snez	a2,a2
     93c:	8e55                	or	a2,a2,a3
     93e:	00a75733          	srl	a4,a4,a0
     942:	962e                	add	a2,a2,a1
     944:	00b63533          	sltu	a0,a2,a1
     948:	973e                	add	a4,a4,a5
     94a:	00a707b3          	add	a5,a4,a0
     94e:	85b2                	mv	a1,a2
     950:	00800737          	lui	a4,0x800
     954:	8f7d                	and	a4,a4,a5
     956:	14070663          	beqz	a4,aa2 <__adddf3+0x224>
     95a:	0405                	addi	s0,s0,1
     95c:	7ff00713          	li	a4,2047
     960:	4ae40163          	beq	s0,a4,e02 <__adddf3+0x584>
     964:	ff800737          	lui	a4,0xff800
     968:	177d                	addi	a4,a4,-1
     96a:	8ff9                	and	a5,a5,a4
     96c:	0015f513          	andi	a0,a1,1
     970:	0015d713          	srli	a4,a1,0x1
     974:	8d59                	or	a0,a0,a4
     976:	01f79593          	slli	a1,a5,0x1f
     97a:	8dc9                	or	a1,a1,a0
     97c:	8385                	srli	a5,a5,0x1
     97e:	a215                	j	aa2 <__adddf3+0x224>
     980:	fe050693          	addi	a3,a0,-32
     984:	02000893          	li	a7,32
     988:	00d756b3          	srl	a3,a4,a3
     98c:	4801                	li	a6,0
     98e:	01150863          	beq	a0,a7,99e <__adddf3+0x120>
     992:	04000813          	li	a6,64
     996:	40a80533          	sub	a0,a6,a0
     99a:	00a71833          	sll	a6,a4,a0
     99e:	00c86633          	or	a2,a6,a2
     9a2:	00c03633          	snez	a2,a2
     9a6:	8e55                	or	a2,a2,a3
     9a8:	4701                	li	a4,0
     9aa:	bf61                	j	942 <__adddf3+0xc4>
     9ac:	8e59                	or	a2,a2,a4
     9ae:	00c03633          	snez	a2,a2
     9b2:	bfdd                	j	9a8 <__adddf3+0x12a>
     9b4:	0a080b63          	beqz	a6,a6a <__adddf3+0x1ec>
     9b8:	40830533          	sub	a0,t1,s0
     9bc:	e40d                	bnez	s0,9e6 <__adddf3+0x168>
     9be:	00b7e6b3          	or	a3,a5,a1
     9c2:	42068763          	beqz	a3,df0 <__adddf3+0x572>
     9c6:	fff50693          	addi	a3,a0,-1
     9ca:	e699                	bnez	a3,9d8 <__adddf3+0x15a>
     9cc:	95b2                	add	a1,a1,a2
     9ce:	97ba                	add	a5,a5,a4
     9d0:	00c5b633          	sltu	a2,a1,a2
     9d4:	97b2                	add	a5,a5,a2
     9d6:	bf29                	j	8f0 <__adddf3+0x72>
     9d8:	7ff00813          	li	a6,2047
     9dc:	01051d63          	bne	a0,a6,9f6 <__adddf3+0x178>
     9e0:	87ba                	mv	a5,a4
     9e2:	85b2                	mv	a1,a2
     9e4:	bf21                	j	8fc <__adddf3+0x7e>
     9e6:	7ff00693          	li	a3,2047
     9ea:	fed30be3          	beq	t1,a3,9e0 <__adddf3+0x162>
     9ee:	008006b7          	lui	a3,0x800
     9f2:	8fd5                	or	a5,a5,a3
     9f4:	86aa                	mv	a3,a0
     9f6:	03800513          	li	a0,56
     9fa:	06d54363          	blt	a0,a3,a60 <__adddf3+0x1e2>
     9fe:	457d                	li	a0,31
     a00:	02d54b63          	blt	a0,a3,a36 <__adddf3+0x1b8>
     a04:	02000813          	li	a6,32
     a08:	40d80833          	sub	a6,a6,a3
     a0c:	01079533          	sll	a0,a5,a6
     a10:	00d5d8b3          	srl	a7,a1,a3
     a14:	010595b3          	sll	a1,a1,a6
     a18:	01156533          	or	a0,a0,a7
     a1c:	00b035b3          	snez	a1,a1
     a20:	8d4d                	or	a0,a0,a1
     a22:	00d7d7b3          	srl	a5,a5,a3
     a26:	00c505b3          	add	a1,a0,a2
     a2a:	97ba                	add	a5,a5,a4
     a2c:	00c5b633          	sltu	a2,a1,a2
     a30:	97b2                	add	a5,a5,a2
     a32:	841a                	mv	s0,t1
     a34:	bf31                	j	950 <__adddf3+0xd2>
     a36:	fe068513          	addi	a0,a3,-32 # 7fffe0 <__min_heap_size+0x7effe0>
     a3a:	02000893          	li	a7,32
     a3e:	00a7d833          	srl	a6,a5,a0
     a42:	4501                	li	a0,0
     a44:	01168763          	beq	a3,a7,a52 <__adddf3+0x1d4>
     a48:	04000513          	li	a0,64
     a4c:	8d15                	sub	a0,a0,a3
     a4e:	00a79533          	sll	a0,a5,a0
     a52:	8d4d                	or	a0,a0,a1
     a54:	00a03533          	snez	a0,a0
     a58:	00a86533          	or	a0,a6,a0
     a5c:	4781                	li	a5,0
     a5e:	b7e1                	j	a26 <__adddf3+0x1a8>
     a60:	00b7e533          	or	a0,a5,a1
     a64:	00a03533          	snez	a0,a0
     a68:	bfd5                	j	a5c <__adddf3+0x1de>
     a6a:	00140693          	addi	a3,s0,1
     a6e:	7fe6f513          	andi	a0,a3,2046
     a72:	e13d                	bnez	a0,ad8 <__adddf3+0x25a>
     a74:	00b7e6b3          	or	a3,a5,a1
     a78:	e429                	bnez	s0,ac2 <__adddf3+0x244>
     a7a:	36068f63          	beqz	a3,df8 <__adddf3+0x57a>
     a7e:	00c766b3          	or	a3,a4,a2
     a82:	c285                	beqz	a3,aa2 <__adddf3+0x224>
     a84:	962e                	add	a2,a2,a1
     a86:	97ba                	add	a5,a5,a4
     a88:	00b63533          	sltu	a0,a2,a1
     a8c:	97aa                	add	a5,a5,a0
     a8e:	00800737          	lui	a4,0x800
     a92:	8f7d                	and	a4,a4,a5
     a94:	85b2                	mv	a1,a2
     a96:	c711                	beqz	a4,aa2 <__adddf3+0x224>
     a98:	ff800737          	lui	a4,0xff800
     a9c:	177d                	addi	a4,a4,-1
     a9e:	8ff9                	and	a5,a5,a4
     aa0:	4405                	li	s0,1
     aa2:	0075f713          	andi	a4,a1,7
     aa6:	36070063          	beqz	a4,e06 <__adddf3+0x588>
     aaa:	00f5f713          	andi	a4,a1,15
     aae:	4691                	li	a3,4
     ab0:	34d70b63          	beq	a4,a3,e06 <__adddf3+0x588>
     ab4:	00458713          	addi	a4,a1,4
     ab8:	00b73533          	sltu	a0,a4,a1
     abc:	97aa                	add	a5,a5,a0
     abe:	85ba                	mv	a1,a4
     ac0:	a699                	j	e06 <__adddf3+0x588>
     ac2:	de99                	beqz	a3,9e0 <__adddf3+0x162>
     ac4:	8e59                	or	a2,a2,a4
     ac6:	e2060be3          	beqz	a2,8fc <__adddf3+0x7e>
     aca:	4481                	li	s1,0
     acc:	004007b7          	lui	a5,0x400
     ad0:	4581                	li	a1,0
     ad2:	7ff00413          	li	s0,2047
     ad6:	ae05                	j	e06 <__adddf3+0x588>
     ad8:	7ff00513          	li	a0,2047
     adc:	32a68163          	beq	a3,a0,dfe <__adddf3+0x580>
     ae0:	962e                	add	a2,a2,a1
     ae2:	00b63533          	sltu	a0,a2,a1
     ae6:	97ba                	add	a5,a5,a4
     ae8:	97aa                	add	a5,a5,a0
     aea:	01f79513          	slli	a0,a5,0x1f
     aee:	8205                	srli	a2,a2,0x1
     af0:	00c565b3          	or	a1,a0,a2
     af4:	8385                	srli	a5,a5,0x1
     af6:	8436                	mv	s0,a3
     af8:	b76d                	j	aa2 <__adddf3+0x224>
     afa:	0d005663          	blez	a6,bc6 <__adddf3+0x348>
     afe:	08031163          	bnez	t1,b80 <__adddf3+0x302>
     b02:	00c766b3          	or	a3,a4,a2
     b06:	36068163          	beqz	a3,e68 <__adddf3+0x5ea>
     b0a:	fff80513          	addi	a0,a6,-1
     b0e:	e911                	bnez	a0,b22 <__adddf3+0x2a4>
     b10:	40c58633          	sub	a2,a1,a2
     b14:	00c5b533          	sltu	a0,a1,a2
     b18:	8f99                	sub	a5,a5,a4
     b1a:	8f89                	sub	a5,a5,a0
     b1c:	85b2                	mv	a1,a2
     b1e:	4405                	li	s0,1
     b20:	a0b1                	j	b6c <__adddf3+0x2ee>
     b22:	7ff00693          	li	a3,2047
     b26:	dcd80be3          	beq	a6,a3,8fc <__adddf3+0x7e>
     b2a:	03800693          	li	a3,56
     b2e:	08a6c863          	blt	a3,a0,bbe <__adddf3+0x340>
     b32:	46fd                	li	a3,31
     b34:	04a6cf63          	blt	a3,a0,b92 <__adddf3+0x314>
     b38:	02000813          	li	a6,32
     b3c:	40a80833          	sub	a6,a6,a0
     b40:	010716b3          	sll	a3,a4,a6
     b44:	00a658b3          	srl	a7,a2,a0
     b48:	01061633          	sll	a2,a2,a6
     b4c:	0116e6b3          	or	a3,a3,a7
     b50:	00c03633          	snez	a2,a2
     b54:	8e55                	or	a2,a2,a3
     b56:	00a75733          	srl	a4,a4,a0
     b5a:	40c58633          	sub	a2,a1,a2
     b5e:	00c5b533          	sltu	a0,a1,a2
     b62:	40e78733          	sub	a4,a5,a4
     b66:	40a707b3          	sub	a5,a4,a0
     b6a:	85b2                	mv	a1,a2
     b6c:	00800937          	lui	s2,0x800
     b70:	0127f733          	and	a4,a5,s2
     b74:	d71d                	beqz	a4,aa2 <__adddf3+0x224>
     b76:	197d                	addi	s2,s2,-1
     b78:	0127f933          	and	s2,a5,s2
     b7c:	89ae                	mv	s3,a1
     b7e:	aa5d                	j	d34 <__adddf3+0x4b6>
     b80:	7ff00693          	li	a3,2047
     b84:	f0d40fe3          	beq	s0,a3,aa2 <__adddf3+0x224>
     b88:	008006b7          	lui	a3,0x800
     b8c:	8f55                	or	a4,a4,a3
     b8e:	8542                	mv	a0,a6
     b90:	bf69                	j	b2a <__adddf3+0x2ac>
     b92:	fe050693          	addi	a3,a0,-32
     b96:	02000893          	li	a7,32
     b9a:	00d756b3          	srl	a3,a4,a3
     b9e:	4801                	li	a6,0
     ba0:	01150863          	beq	a0,a7,bb0 <__adddf3+0x332>
     ba4:	04000813          	li	a6,64
     ba8:	40a80533          	sub	a0,a6,a0
     bac:	00a71833          	sll	a6,a4,a0
     bb0:	00c86633          	or	a2,a6,a2
     bb4:	00c03633          	snez	a2,a2
     bb8:	8e55                	or	a2,a2,a3
     bba:	4701                	li	a4,0
     bbc:	bf79                	j	b5a <__adddf3+0x2dc>
     bbe:	8e59                	or	a2,a2,a4
     bc0:	00c03633          	snez	a2,a2
     bc4:	bfdd                	j	bba <__adddf3+0x33c>
     bc6:	0c080563          	beqz	a6,c90 <__adddf3+0x412>
     bca:	40830533          	sub	a0,t1,s0
     bce:	e81d                	bnez	s0,c04 <__adddf3+0x386>
     bd0:	00b7e833          	or	a6,a5,a1
     bd4:	28080c63          	beqz	a6,e6c <__adddf3+0x5ee>
     bd8:	fff50813          	addi	a6,a0,-1
     bdc:	00081b63          	bnez	a6,bf2 <__adddf3+0x374>
     be0:	40b605b3          	sub	a1,a2,a1
     be4:	40f707b3          	sub	a5,a4,a5
     be8:	00b63633          	sltu	a2,a2,a1
     bec:	8f91                	sub	a5,a5,a2
     bee:	84b6                	mv	s1,a3
     bf0:	b73d                	j	b1e <__adddf3+0x2a0>
     bf2:	7ff00893          	li	a7,2047
     bf6:	03151063          	bne	a0,a7,c16 <__adddf3+0x398>
     bfa:	87ba                	mv	a5,a4
     bfc:	85b2                	mv	a1,a2
     bfe:	7ff00413          	li	s0,2047
     c02:	a07d                	j	cb0 <__adddf3+0x432>
     c04:	7ff00813          	li	a6,2047
     c08:	ff0309e3          	beq	t1,a6,bfa <__adddf3+0x37c>
     c0c:	00800837          	lui	a6,0x800
     c10:	0107e7b3          	or	a5,a5,a6
     c14:	882a                	mv	a6,a0
     c16:	03800513          	li	a0,56
     c1a:	07054663          	blt	a0,a6,c86 <__adddf3+0x408>
     c1e:	457d                	li	a0,31
     c20:	03054d63          	blt	a0,a6,c5a <__adddf3+0x3dc>
     c24:	02000893          	li	a7,32
     c28:	410888b3          	sub	a7,a7,a6
     c2c:	01179533          	sll	a0,a5,a7
     c30:	0105de33          	srl	t3,a1,a6
     c34:	011595b3          	sll	a1,a1,a7
     c38:	01c56533          	or	a0,a0,t3
     c3c:	00b035b3          	snez	a1,a1
     c40:	8d4d                	or	a0,a0,a1
     c42:	0107d7b3          	srl	a5,a5,a6
     c46:	40a605b3          	sub	a1,a2,a0
     c4a:	40f707b3          	sub	a5,a4,a5
     c4e:	00b63633          	sltu	a2,a2,a1
     c52:	8f91                	sub	a5,a5,a2
     c54:	841a                	mv	s0,t1
     c56:	84b6                	mv	s1,a3
     c58:	bf11                	j	b6c <__adddf3+0x2ee>
     c5a:	fe080513          	addi	a0,a6,-32 # 7fffe0 <__min_heap_size+0x7effe0>
     c5e:	02000e13          	li	t3,32
     c62:	00a7d8b3          	srl	a7,a5,a0
     c66:	4501                	li	a0,0
     c68:	01c80863          	beq	a6,t3,c78 <__adddf3+0x3fa>
     c6c:	04000513          	li	a0,64
     c70:	41050533          	sub	a0,a0,a6
     c74:	00a79533          	sll	a0,a5,a0
     c78:	8d4d                	or	a0,a0,a1
     c7a:	00a03533          	snez	a0,a0
     c7e:	00a8e533          	or	a0,a7,a0
     c82:	4781                	li	a5,0
     c84:	b7c9                	j	c46 <__adddf3+0x3c8>
     c86:	00b7e533          	or	a0,a5,a1
     c8a:	00a03533          	snez	a0,a0
     c8e:	bfd5                	j	c82 <__adddf3+0x404>
     c90:	00140513          	addi	a0,s0,1
     c94:	7fe57513          	andi	a0,a0,2046
     c98:	e925                	bnez	a0,d08 <__adddf3+0x48a>
     c9a:	00b7e833          	or	a6,a5,a1
     c9e:	00c76533          	or	a0,a4,a2
     ca2:	e821                	bnez	s0,cf2 <__adddf3+0x474>
     ca4:	00081863          	bnez	a6,cb4 <__adddf3+0x436>
     ca8:	1c050663          	beqz	a0,e74 <__adddf3+0x5f6>
     cac:	87ba                	mv	a5,a4
     cae:	85b2                	mv	a1,a2
     cb0:	84b6                	mv	s1,a3
     cb2:	bbc5                	j	aa2 <__adddf3+0x224>
     cb4:	de0507e3          	beqz	a0,aa2 <__adddf3+0x224>
     cb8:	40c58833          	sub	a6,a1,a2
     cbc:	0105b8b3          	sltu	a7,a1,a6
     cc0:	40e78533          	sub	a0,a5,a4
     cc4:	41150533          	sub	a0,a0,a7
     cc8:	008008b7          	lui	a7,0x800
     ccc:	011578b3          	and	a7,a0,a7
     cd0:	00088a63          	beqz	a7,ce4 <__adddf3+0x466>
     cd4:	40b605b3          	sub	a1,a2,a1
     cd8:	40f707b3          	sub	a5,a4,a5
     cdc:	00b63633          	sltu	a2,a2,a1
     ce0:	8f91                	sub	a5,a5,a2
     ce2:	b7f9                	j	cb0 <__adddf3+0x432>
     ce4:	00a865b3          	or	a1,a6,a0
     ce8:	18058a63          	beqz	a1,e7c <__adddf3+0x5fe>
     cec:	87aa                	mv	a5,a0
     cee:	85c2                	mv	a1,a6
     cf0:	bb4d                	j	aa2 <__adddf3+0x224>
     cf2:	00081863          	bnez	a6,d02 <__adddf3+0x484>
     cf6:	18050563          	beqz	a0,e80 <__adddf3+0x602>
     cfa:	87ba                	mv	a5,a4
     cfc:	85b2                	mv	a1,a2
     cfe:	84b6                	mv	s1,a3
     d00:	bef5                	j	8fc <__adddf3+0x7e>
     d02:	be050de3          	beqz	a0,8fc <__adddf3+0x7e>
     d06:	b3d1                	j	aca <__adddf3+0x24c>
     d08:	40c589b3          	sub	s3,a1,a2
     d0c:	0135b533          	sltu	a0,a1,s3
     d10:	40e78933          	sub	s2,a5,a4
     d14:	40a90933          	sub	s2,s2,a0
     d18:	00800537          	lui	a0,0x800
     d1c:	00a97533          	and	a0,s2,a0
     d20:	c935                	beqz	a0,d94 <__adddf3+0x516>
     d22:	40b609b3          	sub	s3,a2,a1
     d26:	40f707b3          	sub	a5,a4,a5
     d2a:	01363633          	sltu	a2,a2,s3
     d2e:	40c78933          	sub	s2,a5,a2
     d32:	84b6                	mv	s1,a3
     d34:	06090663          	beqz	s2,da0 <__adddf3+0x522>
     d38:	854a                	mv	a0,s2
     d3a:	00001097          	auipc	ra,0x1
     d3e:	470080e7          	jalr	1136(ra) # 21aa <__clzsi2>
     d42:	ff850713          	addi	a4,a0,-8 # 7ffff8 <__min_heap_size+0x7efff8>
     d46:	47fd                	li	a5,31
     d48:	06e7c463          	blt	a5,a4,db0 <__adddf3+0x532>
     d4c:	02000793          	li	a5,32
     d50:	8f99                	sub	a5,a5,a4
     d52:	00e91933          	sll	s2,s2,a4
     d56:	00f9d7b3          	srl	a5,s3,a5
     d5a:	0127e7b3          	or	a5,a5,s2
     d5e:	00e995b3          	sll	a1,s3,a4
     d62:	08874163          	blt	a4,s0,de4 <__adddf3+0x566>
     d66:	8f01                	sub	a4,a4,s0
     d68:	00170693          	addi	a3,a4,1 # ff800001 <__heap_end+0xdf7e0001>
     d6c:	467d                	li	a2,31
     d6e:	04d64763          	blt	a2,a3,dbc <__adddf3+0x53e>
     d72:	02000713          	li	a4,32
     d76:	8f15                	sub	a4,a4,a3
     d78:	00e79633          	sll	a2,a5,a4
     d7c:	00d5d533          	srl	a0,a1,a3
     d80:	00e595b3          	sll	a1,a1,a4
     d84:	8e49                	or	a2,a2,a0
     d86:	00b035b3          	snez	a1,a1
     d8a:	8dd1                	or	a1,a1,a2
     d8c:	00d7d7b3          	srl	a5,a5,a3
     d90:	4401                	li	s0,0
     d92:	bb01                	j	aa2 <__adddf3+0x224>
     d94:	0129e5b3          	or	a1,s3,s2
     d98:	fdd1                	bnez	a1,d34 <__adddf3+0x4b6>
     d9a:	4781                	li	a5,0
     d9c:	4401                	li	s0,0
     d9e:	a8e9                	j	e78 <__adddf3+0x5fa>
     da0:	854e                	mv	a0,s3
     da2:	00001097          	auipc	ra,0x1
     da6:	408080e7          	jalr	1032(ra) # 21aa <__clzsi2>
     daa:	02050513          	addi	a0,a0,32
     dae:	bf51                	j	d42 <__adddf3+0x4c4>
     db0:	fd850793          	addi	a5,a0,-40
     db4:	00f997b3          	sll	a5,s3,a5
     db8:	4581                	li	a1,0
     dba:	b765                	j	d62 <__adddf3+0x4e4>
     dbc:	1705                	addi	a4,a4,-31
     dbe:	02000613          	li	a2,32
     dc2:	00e7d733          	srl	a4,a5,a4
     dc6:	4501                	li	a0,0
     dc8:	00c68763          	beq	a3,a2,dd6 <__adddf3+0x558>
     dcc:	04000513          	li	a0,64
     dd0:	8d15                	sub	a0,a0,a3
     dd2:	00a79533          	sll	a0,a5,a0
     dd6:	8d4d                	or	a0,a0,a1
     dd8:	00a03533          	snez	a0,a0
     ddc:	00a765b3          	or	a1,a4,a0
     de0:	4781                	li	a5,0
     de2:	b77d                	j	d90 <__adddf3+0x512>
     de4:	8c19                	sub	s0,s0,a4
     de6:	ff800737          	lui	a4,0xff800
     dea:	177d                	addi	a4,a4,-1
     dec:	8ff9                	and	a5,a5,a4
     dee:	b955                	j	aa2 <__adddf3+0x224>
     df0:	87ba                	mv	a5,a4
     df2:	85b2                	mv	a1,a2
     df4:	842a                	mv	s0,a0
     df6:	b175                	j	aa2 <__adddf3+0x224>
     df8:	87ba                	mv	a5,a4
     dfa:	85b2                	mv	a1,a2
     dfc:	b15d                	j	aa2 <__adddf3+0x224>
     dfe:	7ff00413          	li	s0,2047
     e02:	4781                	li	a5,0
     e04:	4581                	li	a1,0
     e06:	00800737          	lui	a4,0x800
     e0a:	8f7d                	and	a4,a4,a5
     e0c:	cb11                	beqz	a4,e20 <__adddf3+0x5a2>
     e0e:	0405                	addi	s0,s0,1
     e10:	7ff00713          	li	a4,2047
     e14:	06e40b63          	beq	s0,a4,e8a <__adddf3+0x60c>
     e18:	ff800737          	lui	a4,0xff800
     e1c:	177d                	addi	a4,a4,-1
     e1e:	8ff9                	and	a5,a5,a4
     e20:	01d79713          	slli	a4,a5,0x1d
     e24:	0035d513          	srli	a0,a1,0x3
     e28:	8d59                	or	a0,a0,a4
     e2a:	7ff00713          	li	a4,2047
     e2e:	838d                	srli	a5,a5,0x3
     e30:	00e41963          	bne	s0,a4,e42 <__adddf3+0x5c4>
     e34:	8d5d                	or	a0,a0,a5
     e36:	4781                	li	a5,0
     e38:	c509                	beqz	a0,e42 <__adddf3+0x5c4>
     e3a:	000807b7          	lui	a5,0x80
     e3e:	4501                	li	a0,0
     e40:	4481                	li	s1,0
     e42:	01441713          	slli	a4,s0,0x14
     e46:	7ff006b7          	lui	a3,0x7ff00
     e4a:	07b2                	slli	a5,a5,0xc
     e4c:	40f2                	lw	ra,28(sp)
     e4e:	4462                	lw	s0,24(sp)
     e50:	8f75                	and	a4,a4,a3
     e52:	83b1                	srli	a5,a5,0xc
     e54:	04fe                	slli	s1,s1,0x1f
     e56:	8fd9                	or	a5,a5,a4
     e58:	0097e733          	or	a4,a5,s1
     e5c:	4942                	lw	s2,16(sp)
     e5e:	44d2                	lw	s1,20(sp)
     e60:	49b2                	lw	s3,12(sp)
     e62:	85ba                	mv	a1,a4
     e64:	6105                	addi	sp,sp,32
     e66:	8082                	ret
     e68:	8442                	mv	s0,a6
     e6a:	b925                	j	aa2 <__adddf3+0x224>
     e6c:	87ba                	mv	a5,a4
     e6e:	85b2                	mv	a1,a2
     e70:	842a                	mv	s0,a0
     e72:	bd3d                	j	cb0 <__adddf3+0x432>
     e74:	4781                	li	a5,0
     e76:	4581                	li	a1,0
     e78:	4481                	li	s1,0
     e7a:	b771                	j	e06 <__adddf3+0x588>
     e7c:	4781                	li	a5,0
     e7e:	bfed                	j	e78 <__adddf3+0x5fa>
     e80:	4581                	li	a1,0
     e82:	4481                	li	s1,0
     e84:	004007b7          	lui	a5,0x400
     e88:	b1a9                	j	ad2 <__adddf3+0x254>
     e8a:	4781                	li	a5,0
     e8c:	4581                	li	a1,0
     e8e:	bf49                	j	e20 <__adddf3+0x5a2>

00000e90 <__divdf3>:
     e90:	7179                	addi	sp,sp,-48
     e92:	d04a                	sw	s2,32(sp)
     e94:	0145d913          	srli	s2,a1,0x14
     e98:	d226                	sw	s1,36(sp)
     e9a:	ce4e                	sw	s3,28(sp)
     e9c:	cc52                	sw	s4,24(sp)
     e9e:	c85a                	sw	s6,16(sp)
     ea0:	c462                	sw	s8,8(sp)
     ea2:	00c59493          	slli	s1,a1,0xc
     ea6:	d606                	sw	ra,44(sp)
     ea8:	d422                	sw	s0,40(sp)
     eaa:	ca56                	sw	s5,20(sp)
     eac:	c65e                	sw	s7,12(sp)
     eae:	7ff97913          	andi	s2,s2,2047
     eb2:	8a2a                	mv	s4,a0
     eb4:	8b32                	mv	s6,a2
     eb6:	8c36                	mv	s8,a3
     eb8:	80b1                	srli	s1,s1,0xc
     eba:	01f5d993          	srli	s3,a1,0x1f
     ebe:	08090463          	beqz	s2,f46 <__divdf3+0xb6>
     ec2:	7ff00793          	li	a5,2047
     ec6:	0cf90f63          	beq	s2,a5,fa4 <__divdf3+0x114>
     eca:	01d55a93          	srli	s5,a0,0x1d
     ece:	048e                	slli	s1,s1,0x3
     ed0:	009ae4b3          	or	s1,s5,s1
     ed4:	00800ab7          	lui	s5,0x800
     ed8:	0154eab3          	or	s5,s1,s5
     edc:	00351413          	slli	s0,a0,0x3
     ee0:	c0190913          	addi	s2,s2,-1023 # 7ffc01 <__min_heap_size+0x7efc01>
     ee4:	4b81                	li	s7,0
     ee6:	00cc1513          	slli	a0,s8,0xc
     eea:	00c55493          	srli	s1,a0,0xc
     eee:	014c5513          	srli	a0,s8,0x14
     ef2:	7ff57593          	andi	a1,a0,2047
     ef6:	01fc5c13          	srli	s8,s8,0x1f
     efa:	c9e1                	beqz	a1,fca <__divdf3+0x13a>
     efc:	7ff00793          	li	a5,2047
     f00:	12f58563          	beq	a1,a5,102a <__divdf3+0x19a>
     f04:	00349513          	slli	a0,s1,0x3
     f08:	01db5793          	srli	a5,s6,0x1d
     f0c:	8d5d                	or	a0,a0,a5
     f0e:	008004b7          	lui	s1,0x800
     f12:	8cc9                	or	s1,s1,a0
     f14:	003b1f93          	slli	t6,s6,0x3
     f18:	c0158513          	addi	a0,a1,-1023
     f1c:	4781                	li	a5,0
     f1e:	002b9713          	slli	a4,s7,0x2
     f22:	8f5d                	or	a4,a4,a5
     f24:	177d                	addi	a4,a4,-1
     f26:	4639                	li	a2,14
     f28:	0189c6b3          	xor	a3,s3,s8
     f2c:	40a905b3          	sub	a1,s2,a0
     f30:	10e66f63          	bltu	a2,a4,104e <__divdf3+0x1be>
     f34:	00007617          	auipc	a2,0x7
     f38:	48860613          	addi	a2,a2,1160 # 83bc <__srodata+0x10c>
     f3c:	070a                	slli	a4,a4,0x2
     f3e:	9732                	add	a4,a4,a2
     f40:	4318                	lw	a4,0(a4)
     f42:	9732                	add	a4,a4,a2
     f44:	8702                	jr	a4
     f46:	00a4eab3          	or	s5,s1,a0
     f4a:	060a8763          	beqz	s5,fb8 <__divdf3+0x128>
     f4e:	02048e63          	beqz	s1,f8a <__divdf3+0xfa>
     f52:	8526                	mv	a0,s1
     f54:	00001097          	auipc	ra,0x1
     f58:	256080e7          	jalr	598(ra) # 21aa <__clzsi2>
     f5c:	ff550793          	addi	a5,a0,-11
     f60:	4771                	li	a4,28
     f62:	02f74b63          	blt	a4,a5,f98 <__divdf3+0x108>
     f66:	4af5                	li	s5,29
     f68:	ff850413          	addi	s0,a0,-8
     f6c:	40fa8ab3          	sub	s5,s5,a5
     f70:	008494b3          	sll	s1,s1,s0
     f74:	015a5ab3          	srl	s5,s4,s5
     f78:	009aeab3          	or	s5,s5,s1
     f7c:	008a1433          	sll	s0,s4,s0
     f80:	c0d00593          	li	a1,-1011
     f84:	40a58933          	sub	s2,a1,a0
     f88:	bfb1                	j	ee4 <__divdf3+0x54>
     f8a:	00001097          	auipc	ra,0x1
     f8e:	220080e7          	jalr	544(ra) # 21aa <__clzsi2>
     f92:	02050513          	addi	a0,a0,32
     f96:	b7d9                	j	f5c <__divdf3+0xcc>
     f98:	fd850493          	addi	s1,a0,-40
     f9c:	009a1ab3          	sll	s5,s4,s1
     fa0:	4401                	li	s0,0
     fa2:	bff9                	j	f80 <__divdf3+0xf0>
     fa4:	00a4eab3          	or	s5,s1,a0
     fa8:	000a8c63          	beqz	s5,fc0 <__divdf3+0x130>
     fac:	842a                	mv	s0,a0
     fae:	8aa6                	mv	s5,s1
     fb0:	7ff00913          	li	s2,2047
     fb4:	4b8d                	li	s7,3
     fb6:	bf05                	j	ee6 <__divdf3+0x56>
     fb8:	4401                	li	s0,0
     fba:	4901                	li	s2,0
     fbc:	4b85                	li	s7,1
     fbe:	b725                	j	ee6 <__divdf3+0x56>
     fc0:	4401                	li	s0,0
     fc2:	7ff00913          	li	s2,2047
     fc6:	4b89                	li	s7,2
     fc8:	bf39                	j	ee6 <__divdf3+0x56>
     fca:	0164efb3          	or	t6,s1,s6
     fce:	060f8763          	beqz	t6,103c <__divdf3+0x1ac>
     fd2:	02048e63          	beqz	s1,100e <__divdf3+0x17e>
     fd6:	8526                	mv	a0,s1
     fd8:	00001097          	auipc	ra,0x1
     fdc:	1d2080e7          	jalr	466(ra) # 21aa <__clzsi2>
     fe0:	85aa                	mv	a1,a0
     fe2:	ff558793          	addi	a5,a1,-11
     fe6:	4771                	li	a4,28
     fe8:	02f74b63          	blt	a4,a5,101e <__divdf3+0x18e>
     fec:	46f5                	li	a3,29
     fee:	ff858f93          	addi	t6,a1,-8
     ff2:	8e9d                	sub	a3,a3,a5
     ff4:	01f49533          	sll	a0,s1,t6
     ff8:	00db56b3          	srl	a3,s6,a3
     ffc:	00a6e4b3          	or	s1,a3,a0
    1000:	01fb1fb3          	sll	t6,s6,t6
    1004:	c0d00693          	li	a3,-1011
    1008:	40b68533          	sub	a0,a3,a1
    100c:	bf01                	j	f1c <__divdf3+0x8c>
    100e:	855a                	mv	a0,s6
    1010:	00001097          	auipc	ra,0x1
    1014:	19a080e7          	jalr	410(ra) # 21aa <__clzsi2>
    1018:	02050593          	addi	a1,a0,32
    101c:	b7d9                	j	fe2 <__divdf3+0x152>
    101e:	fd858513          	addi	a0,a1,-40
    1022:	00ab14b3          	sll	s1,s6,a0
    1026:	4f81                	li	t6,0
    1028:	bff1                	j	1004 <__divdf3+0x174>
    102a:	0164efb3          	or	t6,s1,s6
    102e:	000f8b63          	beqz	t6,1044 <__divdf3+0x1b4>
    1032:	8fda                	mv	t6,s6
    1034:	7ff00513          	li	a0,2047
    1038:	478d                	li	a5,3
    103a:	b5d5                	j	f1e <__divdf3+0x8e>
    103c:	4481                	li	s1,0
    103e:	4501                	li	a0,0
    1040:	4785                	li	a5,1
    1042:	bdf1                	j	f1e <__divdf3+0x8e>
    1044:	4481                	li	s1,0
    1046:	7ff00513          	li	a0,2047
    104a:	4789                	li	a5,2
    104c:	bdc9                	j	f1e <__divdf3+0x8e>
    104e:	0154e663          	bltu	s1,s5,105a <__divdf3+0x1ca>
    1052:	2a9a9663          	bne	s5,s1,12fe <__divdf3+0x46e>
    1056:	2bf46463          	bltu	s0,t6,12fe <__divdf3+0x46e>
    105a:	01fa9613          	slli	a2,s5,0x1f
    105e:	00145713          	srli	a4,s0,0x1
    1062:	01f41793          	slli	a5,s0,0x1f
    1066:	001ada93          	srli	s5,s5,0x1
    106a:	00e66433          	or	s0,a2,a4
    106e:	00849513          	slli	a0,s1,0x8
    1072:	018fd893          	srli	a7,t6,0x18
    1076:	00a8e8b3          	or	a7,a7,a0
    107a:	8141                	srli	a0,a0,0x10
    107c:	02aade33          	divu	t3,s5,a0
    1080:	01089e93          	slli	t4,a7,0x10
    1084:	010ede93          	srli	t4,t4,0x10
    1088:	01045713          	srli	a4,s0,0x10
    108c:	008f9313          	slli	t1,t6,0x8
    1090:	02aafab3          	remu	s5,s5,a0
    1094:	8672                	mv	a2,t3
    1096:	03ce8833          	mul	a6,t4,t3
    109a:	0ac2                	slli	s5,s5,0x10
    109c:	01576733          	or	a4,a4,s5
    10a0:	01077c63          	bgeu	a4,a6,10b8 <__divdf3+0x228>
    10a4:	9746                	add	a4,a4,a7
    10a6:	fffe0613          	addi	a2,t3,-1
    10aa:	01176763          	bltu	a4,a7,10b8 <__divdf3+0x228>
    10ae:	01077563          	bgeu	a4,a6,10b8 <__divdf3+0x228>
    10b2:	ffee0613          	addi	a2,t3,-2
    10b6:	9746                	add	a4,a4,a7
    10b8:	41070733          	sub	a4,a4,a6
    10bc:	02a75e33          	divu	t3,a4,a0
    10c0:	0442                	slli	s0,s0,0x10
    10c2:	8041                	srli	s0,s0,0x10
    10c4:	02a77733          	remu	a4,a4,a0
    10c8:	82f2                	mv	t0,t3
    10ca:	03ce8833          	mul	a6,t4,t3
    10ce:	0742                	slli	a4,a4,0x10
    10d0:	8f41                	or	a4,a4,s0
    10d2:	01077c63          	bgeu	a4,a6,10ea <__divdf3+0x25a>
    10d6:	9746                	add	a4,a4,a7
    10d8:	fffe0293          	addi	t0,t3,-1
    10dc:	01176763          	bltu	a4,a7,10ea <__divdf3+0x25a>
    10e0:	01077563          	bgeu	a4,a6,10ea <__divdf3+0x25a>
    10e4:	ffee0293          	addi	t0,t3,-2
    10e8:	9746                	add	a4,a4,a7
    10ea:	41070433          	sub	s0,a4,a6
    10ee:	0642                	slli	a2,a2,0x10
    10f0:	6841                	lui	a6,0x10
    10f2:	005662b3          	or	t0,a2,t0
    10f6:	fff80e13          	addi	t3,a6,-1 # ffff <__ctor_end__+0x77bf>
    10fa:	0102d613          	srli	a2,t0,0x10
    10fe:	01c2f733          	and	a4,t0,t3
    1102:	01035f13          	srli	t5,t1,0x10
    1106:	01c37e33          	and	t3,t1,t3
    110a:	02ee03b3          	mul	t2,t3,a4
    110e:	03c604b3          	mul	s1,a2,t3
    1112:	02ef0733          	mul	a4,t5,a4
    1116:	03e60fb3          	mul	t6,a2,t5
    111a:	00970633          	add	a2,a4,s1
    111e:	0103d713          	srli	a4,t2,0x10
    1122:	9732                	add	a4,a4,a2
    1124:	00977363          	bgeu	a4,s1,112a <__divdf3+0x29a>
    1128:	9fc2                	add	t6,t6,a6
    112a:	01075613          	srli	a2,a4,0x10
    112e:	967e                	add	a2,a2,t6
    1130:	6fc1                	lui	t6,0x10
    1132:	1ffd                	addi	t6,t6,-1
    1134:	01f77833          	and	a6,a4,t6
    1138:	0842                	slli	a6,a6,0x10
    113a:	01f3f3b3          	and	t2,t2,t6
    113e:	981e                	add	a6,a6,t2
    1140:	00c46763          	bltu	s0,a2,114e <__divdf3+0x2be>
    1144:	8496                	mv	s1,t0
    1146:	02c41e63          	bne	s0,a2,1182 <__divdf3+0x2f2>
    114a:	0307fc63          	bgeu	a5,a6,1182 <__divdf3+0x2f2>
    114e:	979a                	add	a5,a5,t1
    1150:	0067b733          	sltu	a4,a5,t1
    1154:	9746                	add	a4,a4,a7
    1156:	943a                	add	s0,s0,a4
    1158:	fff28493          	addi	s1,t0,-1
    115c:	0088e663          	bltu	a7,s0,1168 <__divdf3+0x2d8>
    1160:	02889163          	bne	a7,s0,1182 <__divdf3+0x2f2>
    1164:	0067ef63          	bltu	a5,t1,1182 <__divdf3+0x2f2>
    1168:	00c46663          	bltu	s0,a2,1174 <__divdf3+0x2e4>
    116c:	00861b63          	bne	a2,s0,1182 <__divdf3+0x2f2>
    1170:	0107f963          	bgeu	a5,a6,1182 <__divdf3+0x2f2>
    1174:	979a                	add	a5,a5,t1
    1176:	0067b733          	sltu	a4,a5,t1
    117a:	9746                	add	a4,a4,a7
    117c:	ffe28493          	addi	s1,t0,-2
    1180:	943a                	add	s0,s0,a4
    1182:	41078833          	sub	a6,a5,a6
    1186:	8c11                	sub	s0,s0,a2
    1188:	0107b7b3          	sltu	a5,a5,a6
    118c:	8c1d                	sub	s0,s0,a5
    118e:	5ffd                	li	t6,-1
    1190:	0e888763          	beq	a7,s0,127e <__divdf3+0x3ee>
    1194:	02a45fb3          	divu	t6,s0,a0
    1198:	01085713          	srli	a4,a6,0x10
    119c:	02a47433          	remu	s0,s0,a0
    11a0:	867e                	mv	a2,t6
    11a2:	03fe87b3          	mul	a5,t4,t6
    11a6:	0442                	slli	s0,s0,0x10
    11a8:	8c59                	or	s0,s0,a4
    11aa:	00f47c63          	bgeu	s0,a5,11c2 <__divdf3+0x332>
    11ae:	9446                	add	s0,s0,a7
    11b0:	ffff8613          	addi	a2,t6,-1 # ffff <__ctor_end__+0x77bf>
    11b4:	01146763          	bltu	s0,a7,11c2 <__divdf3+0x332>
    11b8:	00f47563          	bgeu	s0,a5,11c2 <__divdf3+0x332>
    11bc:	ffef8613          	addi	a2,t6,-2
    11c0:	9446                	add	s0,s0,a7
    11c2:	8c1d                	sub	s0,s0,a5
    11c4:	02a45733          	divu	a4,s0,a0
    11c8:	0842                	slli	a6,a6,0x10
    11ca:	01085813          	srli	a6,a6,0x10
    11ce:	02a47433          	remu	s0,s0,a0
    11d2:	87ba                	mv	a5,a4
    11d4:	02ee8eb3          	mul	t4,t4,a4
    11d8:	0442                	slli	s0,s0,0x10
    11da:	00886433          	or	s0,a6,s0
    11de:	01d47c63          	bgeu	s0,t4,11f6 <__divdf3+0x366>
    11e2:	9446                	add	s0,s0,a7
    11e4:	fff70793          	addi	a5,a4,-1 # ff7fffff <__heap_end+0xdf7dffff>
    11e8:	01146763          	bltu	s0,a7,11f6 <__divdf3+0x366>
    11ec:	01d47563          	bgeu	s0,t4,11f6 <__divdf3+0x366>
    11f0:	ffe70793          	addi	a5,a4,-2
    11f4:	9446                	add	s0,s0,a7
    11f6:	0642                	slli	a2,a2,0x10
    11f8:	8e5d                	or	a2,a2,a5
    11fa:	01061793          	slli	a5,a2,0x10
    11fe:	83c1                	srli	a5,a5,0x10
    1200:	01065713          	srli	a4,a2,0x10
    1204:	02ef0833          	mul	a6,t5,a4
    1208:	41d40433          	sub	s0,s0,t4
    120c:	02ff0f33          	mul	t5,t5,a5
    1210:	03c78eb3          	mul	t4,a5,t3
    1214:	03c70e33          	mul	t3,a4,t3
    1218:	010ed793          	srli	a5,t4,0x10
    121c:	9f72                	add	t5,t5,t3
    121e:	97fa                	add	a5,a5,t5
    1220:	01c7f463          	bgeu	a5,t3,1228 <__divdf3+0x398>
    1224:	6741                	lui	a4,0x10
    1226:	983a                	add	a6,a6,a4
    1228:	0107d713          	srli	a4,a5,0x10
    122c:	9742                	add	a4,a4,a6
    122e:	6841                	lui	a6,0x10
    1230:	187d                	addi	a6,a6,-1
    1232:	0107f533          	and	a0,a5,a6
    1236:	0542                	slli	a0,a0,0x10
    1238:	010efeb3          	and	t4,t4,a6
    123c:	9576                	add	a0,a0,t4
    123e:	00e46663          	bltu	s0,a4,124a <__divdf3+0x3ba>
    1242:	18e41f63          	bne	s0,a4,13e0 <__divdf3+0x550>
    1246:	8fb2                	mv	t6,a2
    1248:	c91d                	beqz	a0,127e <__divdf3+0x3ee>
    124a:	9446                	add	s0,s0,a7
    124c:	fff60f93          	addi	t6,a2,-1
    1250:	03146163          	bltu	s0,a7,1272 <__divdf3+0x3e2>
    1254:	00e46663          	bltu	s0,a4,1260 <__divdf3+0x3d0>
    1258:	18e41363          	bne	s0,a4,13de <__divdf3+0x54e>
    125c:	00a37d63          	bgeu	t1,a0,1276 <__divdf3+0x3e6>
    1260:	00131793          	slli	a5,t1,0x1
    1264:	0067b333          	sltu	t1,a5,t1
    1268:	989a                	add	a7,a7,t1
    126a:	ffe60f93          	addi	t6,a2,-2
    126e:	9446                	add	s0,s0,a7
    1270:	833e                	mv	t1,a5
    1272:	00e41463          	bne	s0,a4,127a <__divdf3+0x3ea>
    1276:	00650463          	beq	a0,t1,127e <__divdf3+0x3ee>
    127a:	001fef93          	ori	t6,t6,1
    127e:	3ff58793          	addi	a5,a1,1023
    1282:	0af05b63          	blez	a5,1338 <__divdf3+0x4a8>
    1286:	007ff713          	andi	a4,t6,7
    128a:	cf01                	beqz	a4,12a2 <__divdf3+0x412>
    128c:	00fff713          	andi	a4,t6,15
    1290:	4611                	li	a2,4
    1292:	00c70863          	beq	a4,a2,12a2 <__divdf3+0x412>
    1296:	004f8613          	addi	a2,t6,4
    129a:	01f63fb3          	sltu	t6,a2,t6
    129e:	94fe                	add	s1,s1,t6
    12a0:	8fb2                	mv	t6,a2
    12a2:	01000737          	lui	a4,0x1000
    12a6:	8f65                	and	a4,a4,s1
    12a8:	c719                	beqz	a4,12b6 <__divdf3+0x426>
    12aa:	ff0007b7          	lui	a5,0xff000
    12ae:	17fd                	addi	a5,a5,-1
    12b0:	8cfd                	and	s1,s1,a5
    12b2:	40058793          	addi	a5,a1,1024
    12b6:	7fe00713          	li	a4,2046
    12ba:	06f74263          	blt	a4,a5,131e <__divdf3+0x48e>
    12be:	003fdf93          	srli	t6,t6,0x3
    12c2:	01d49713          	slli	a4,s1,0x1d
    12c6:	01f76733          	or	a4,a4,t6
    12ca:	0034d513          	srli	a0,s1,0x3
    12ce:	07d2                	slli	a5,a5,0x14
    12d0:	7ff00637          	lui	a2,0x7ff00
    12d4:	0532                	slli	a0,a0,0xc
    12d6:	50b2                	lw	ra,44(sp)
    12d8:	5422                	lw	s0,40(sp)
    12da:	8ff1                	and	a5,a5,a2
    12dc:	8131                	srli	a0,a0,0xc
    12de:	8d5d                	or	a0,a0,a5
    12e0:	06fe                	slli	a3,a3,0x1f
    12e2:	00d567b3          	or	a5,a0,a3
    12e6:	5492                	lw	s1,36(sp)
    12e8:	5902                	lw	s2,32(sp)
    12ea:	49f2                	lw	s3,28(sp)
    12ec:	4a62                	lw	s4,24(sp)
    12ee:	4ad2                	lw	s5,20(sp)
    12f0:	4b42                	lw	s6,16(sp)
    12f2:	4bb2                	lw	s7,12(sp)
    12f4:	4c22                	lw	s8,8(sp)
    12f6:	853a                	mv	a0,a4
    12f8:	85be                	mv	a1,a5
    12fa:	6145                	addi	sp,sp,48
    12fc:	8082                	ret
    12fe:	15fd                	addi	a1,a1,-1
    1300:	4781                	li	a5,0
    1302:	b3b5                	j	106e <__divdf3+0x1de>
    1304:	86ce                	mv	a3,s3
    1306:	84d6                	mv	s1,s5
    1308:	8fa2                	mv	t6,s0
    130a:	87de                	mv	a5,s7
    130c:	470d                	li	a4,3
    130e:	0ae78a63          	beq	a5,a4,13c2 <__divdf3+0x532>
    1312:	4705                	li	a4,1
    1314:	0ae78e63          	beq	a5,a4,13d0 <__divdf3+0x540>
    1318:	4709                	li	a4,2
    131a:	f6e792e3          	bne	a5,a4,127e <__divdf3+0x3ee>
    131e:	4501                	li	a0,0
    1320:	4701                	li	a4,0
    1322:	7ff00793          	li	a5,2047
    1326:	b765                	j	12ce <__divdf3+0x43e>
    1328:	86e2                	mv	a3,s8
    132a:	b7cd                	j	130c <__divdf3+0x47c>
    132c:	000804b7          	lui	s1,0x80
    1330:	4f81                	li	t6,0
    1332:	4681                	li	a3,0
    1334:	478d                	li	a5,3
    1336:	bfd9                	j	130c <__divdf3+0x47c>
    1338:	4505                	li	a0,1
    133a:	8d1d                	sub	a0,a0,a5
    133c:	03800713          	li	a4,56
    1340:	08a74863          	blt	a4,a0,13d0 <__divdf3+0x540>
    1344:	477d                	li	a4,31
    1346:	04a74963          	blt	a4,a0,1398 <__divdf3+0x508>
    134a:	41e58593          	addi	a1,a1,1054
    134e:	00b497b3          	sll	a5,s1,a1
    1352:	00afd733          	srl	a4,t6,a0
    1356:	00bf95b3          	sll	a1,t6,a1
    135a:	8fd9                	or	a5,a5,a4
    135c:	00b035b3          	snez	a1,a1
    1360:	8fcd                	or	a5,a5,a1
    1362:	00a4d533          	srl	a0,s1,a0
    1366:	0077f713          	andi	a4,a5,7
    136a:	cf01                	beqz	a4,1382 <__divdf3+0x4f2>
    136c:	00f7f713          	andi	a4,a5,15
    1370:	4611                	li	a2,4
    1372:	00c70863          	beq	a4,a2,1382 <__divdf3+0x4f2>
    1376:	00478713          	addi	a4,a5,4 # ff000004 <__heap_end+0xdefe0004>
    137a:	00f737b3          	sltu	a5,a4,a5
    137e:	953e                	add	a0,a0,a5
    1380:	87ba                	mv	a5,a4
    1382:	00800737          	lui	a4,0x800
    1386:	8f69                	and	a4,a4,a0
    1388:	e739                	bnez	a4,13d6 <__divdf3+0x546>
    138a:	01d51713          	slli	a4,a0,0x1d
    138e:	838d                	srli	a5,a5,0x3
    1390:	8f5d                	or	a4,a4,a5
    1392:	810d                	srli	a0,a0,0x3
    1394:	4781                	li	a5,0
    1396:	bf25                	j	12ce <__divdf3+0x43e>
    1398:	5705                	li	a4,-31
    139a:	40f707b3          	sub	a5,a4,a5
    139e:	02000613          	li	a2,32
    13a2:	00f4d7b3          	srl	a5,s1,a5
    13a6:	4701                	li	a4,0
    13a8:	00c50663          	beq	a0,a2,13b4 <__divdf3+0x524>
    13ac:	43e58713          	addi	a4,a1,1086
    13b0:	00e49733          	sll	a4,s1,a4
    13b4:	01f76733          	or	a4,a4,t6
    13b8:	00e03733          	snez	a4,a4
    13bc:	8fd9                	or	a5,a5,a4
    13be:	4501                	li	a0,0
    13c0:	b75d                	j	1366 <__divdf3+0x4d6>
    13c2:	00080537          	lui	a0,0x80
    13c6:	4701                	li	a4,0
    13c8:	7ff00793          	li	a5,2047
    13cc:	4681                	li	a3,0
    13ce:	b701                	j	12ce <__divdf3+0x43e>
    13d0:	4501                	li	a0,0
    13d2:	4701                	li	a4,0
    13d4:	b7c1                	j	1394 <__divdf3+0x504>
    13d6:	4501                	li	a0,0
    13d8:	4701                	li	a4,0
    13da:	4785                	li	a5,1
    13dc:	bdcd                	j	12ce <__divdf3+0x43e>
    13de:	867e                	mv	a2,t6
    13e0:	8fb2                	mv	t6,a2
    13e2:	bd61                	j	127a <__divdf3+0x3ea>

000013e4 <__eqdf2>:
    13e4:	0145d713          	srli	a4,a1,0x14
    13e8:	001007b7          	lui	a5,0x100
    13ec:	17fd                	addi	a5,a5,-1
    13ee:	0146d813          	srli	a6,a3,0x14
    13f2:	832a                	mv	t1,a0
    13f4:	8eaa                	mv	t4,a0
    13f6:	7ff77713          	andi	a4,a4,2047
    13fa:	7ff00513          	li	a0,2047
    13fe:	00b7f8b3          	and	a7,a5,a1
    1402:	8f32                	mv	t5,a2
    1404:	8ff5                	and	a5,a5,a3
    1406:	81fd                	srli	a1,a1,0x1f
    1408:	7ff87813          	andi	a6,a6,2047
    140c:	82fd                	srli	a3,a3,0x1f
    140e:	00a71a63          	bne	a4,a0,1422 <__eqdf2+0x3e>
    1412:	0068ee33          	or	t3,a7,t1
    1416:	4505                	li	a0,1
    1418:	000e1463          	bnez	t3,1420 <__eqdf2+0x3c>
    141c:	00e80563          	beq	a6,a4,1426 <__eqdf2+0x42>
    1420:	8082                	ret
    1422:	00a81563          	bne	a6,a0,142c <__eqdf2+0x48>
    1426:	8e5d                	or	a2,a2,a5
    1428:	4505                	li	a0,1
    142a:	fa7d                	bnez	a2,1420 <__eqdf2+0x3c>
    142c:	4505                	li	a0,1
    142e:	ff0719e3          	bne	a4,a6,1420 <__eqdf2+0x3c>
    1432:	fef897e3          	bne	a7,a5,1420 <__eqdf2+0x3c>
    1436:	ffee95e3          	bne	t4,t5,1420 <__eqdf2+0x3c>
    143a:	00d58963          	beq	a1,a3,144c <__eqdf2+0x68>
    143e:	fe0711e3          	bnez	a4,1420 <__eqdf2+0x3c>
    1442:	0068e533          	or	a0,a7,t1
    1446:	00a03533          	snez	a0,a0
    144a:	8082                	ret
    144c:	4501                	li	a0,0
    144e:	8082                	ret

00001450 <__gedf2>:
    1450:	00100737          	lui	a4,0x100
    1454:	177d                	addi	a4,a4,-1
    1456:	0145d813          	srli	a6,a1,0x14
    145a:	00b778b3          	and	a7,a4,a1
    145e:	87aa                	mv	a5,a0
    1460:	832a                	mv	t1,a0
    1462:	7ff87813          	andi	a6,a6,2047
    1466:	01f5d513          	srli	a0,a1,0x1f
    146a:	7ff00e93          	li	t4,2047
    146e:	0146d593          	srli	a1,a3,0x14
    1472:	8f75                	and	a4,a4,a3
    1474:	8e32                	mv	t3,a2
    1476:	7ff5f593          	andi	a1,a1,2047
    147a:	82fd                	srli	a3,a3,0x1f
    147c:	01d81863          	bne	a6,t4,148c <__gedf2+0x3c>
    1480:	00f8eeb3          	or	t4,a7,a5
    1484:	060e8763          	beqz	t4,14f2 <__gedf2+0xa2>
    1488:	5579                	li	a0,-2
    148a:	8082                	ret
    148c:	01d59663          	bne	a1,t4,1498 <__gedf2+0x48>
    1490:	00c76eb3          	or	t4,a4,a2
    1494:	fe0e9ae3          	bnez	t4,1488 <__gedf2+0x38>
    1498:	04081f63          	bnez	a6,14f6 <__gedf2+0xa6>
    149c:	00f8e7b3          	or	a5,a7,a5
    14a0:	0017b793          	seqz	a5,a5
    14a4:	e199                	bnez	a1,14aa <__gedf2+0x5a>
    14a6:	8e59                	or	a2,a2,a4
    14a8:	c221                	beqz	a2,14e8 <__gedf2+0x98>
    14aa:	00079a63          	bnez	a5,14be <__gedf2+0x6e>
    14ae:	00d51463          	bne	a0,a3,14b6 <__gedf2+0x66>
    14b2:	0105da63          	bge	a1,a6,14c6 <__gedf2+0x76>
    14b6:	02050763          	beqz	a0,14e4 <__gedf2+0x94>
    14ba:	557d                	li	a0,-1
    14bc:	8082                	ret
    14be:	557d                	li	a0,-1
    14c0:	c699                	beqz	a3,14ce <__gedf2+0x7e>
    14c2:	8536                	mv	a0,a3
    14c4:	8082                	ret
    14c6:	00b85563          	bge	a6,a1,14d0 <__gedf2+0x80>
    14ca:	fe0508e3          	beqz	a0,14ba <__gedf2+0x6a>
    14ce:	8082                	ret
    14d0:	ff1763e3          	bltu	a4,a7,14b6 <__gedf2+0x66>
    14d4:	00e89c63          	bne	a7,a4,14ec <__gedf2+0x9c>
    14d8:	fc6e6fe3          	bltu	t3,t1,14b6 <__gedf2+0x66>
    14dc:	ffc367e3          	bltu	t1,t3,14ca <__gedf2+0x7a>
    14e0:	4501                	li	a0,0
    14e2:	8082                	ret
    14e4:	4505                	li	a0,1
    14e6:	8082                	ret
    14e8:	ffe5                	bnez	a5,14e0 <__gedf2+0x90>
    14ea:	b7f1                	j	14b6 <__gedf2+0x66>
    14ec:	fce8efe3          	bltu	a7,a4,14ca <__gedf2+0x7a>
    14f0:	bfc5                	j	14e0 <__gedf2+0x90>
    14f2:	f9058fe3          	beq	a1,a6,1490 <__gedf2+0x40>
    14f6:	fa059ce3          	bnez	a1,14ae <__gedf2+0x5e>
    14fa:	4781                	li	a5,0
    14fc:	b76d                	j	14a6 <__gedf2+0x56>

000014fe <__ledf2>:
    14fe:	00100737          	lui	a4,0x100
    1502:	177d                	addi	a4,a4,-1
    1504:	0145d813          	srli	a6,a1,0x14
    1508:	00b778b3          	and	a7,a4,a1
    150c:	87aa                	mv	a5,a0
    150e:	832a                	mv	t1,a0
    1510:	7ff87813          	andi	a6,a6,2047
    1514:	01f5d513          	srli	a0,a1,0x1f
    1518:	7ff00e93          	li	t4,2047
    151c:	0146d593          	srli	a1,a3,0x14
    1520:	8f75                	and	a4,a4,a3
    1522:	8e32                	mv	t3,a2
    1524:	7ff5f593          	andi	a1,a1,2047
    1528:	82fd                	srli	a3,a3,0x1f
    152a:	01d81863          	bne	a6,t4,153a <__ledf2+0x3c>
    152e:	00f8eeb3          	or	t4,a7,a5
    1532:	060e8763          	beqz	t4,15a0 <__ledf2+0xa2>
    1536:	4509                	li	a0,2
    1538:	8082                	ret
    153a:	01d59663          	bne	a1,t4,1546 <__ledf2+0x48>
    153e:	00c76eb3          	or	t4,a4,a2
    1542:	fe0e9ae3          	bnez	t4,1536 <__ledf2+0x38>
    1546:	04081f63          	bnez	a6,15a4 <__ledf2+0xa6>
    154a:	00f8e7b3          	or	a5,a7,a5
    154e:	0017b793          	seqz	a5,a5
    1552:	e199                	bnez	a1,1558 <__ledf2+0x5a>
    1554:	8e59                	or	a2,a2,a4
    1556:	c221                	beqz	a2,1596 <__ledf2+0x98>
    1558:	00079a63          	bnez	a5,156c <__ledf2+0x6e>
    155c:	00d51463          	bne	a0,a3,1564 <__ledf2+0x66>
    1560:	0105da63          	bge	a1,a6,1574 <__ledf2+0x76>
    1564:	02050763          	beqz	a0,1592 <__ledf2+0x94>
    1568:	557d                	li	a0,-1
    156a:	8082                	ret
    156c:	557d                	li	a0,-1
    156e:	c699                	beqz	a3,157c <__ledf2+0x7e>
    1570:	8536                	mv	a0,a3
    1572:	8082                	ret
    1574:	00b85563          	bge	a6,a1,157e <__ledf2+0x80>
    1578:	fe0508e3          	beqz	a0,1568 <__ledf2+0x6a>
    157c:	8082                	ret
    157e:	ff1763e3          	bltu	a4,a7,1564 <__ledf2+0x66>
    1582:	00e89c63          	bne	a7,a4,159a <__ledf2+0x9c>
    1586:	fc6e6fe3          	bltu	t3,t1,1564 <__ledf2+0x66>
    158a:	ffc367e3          	bltu	t1,t3,1578 <__ledf2+0x7a>
    158e:	4501                	li	a0,0
    1590:	8082                	ret
    1592:	4505                	li	a0,1
    1594:	8082                	ret
    1596:	ffe5                	bnez	a5,158e <__ledf2+0x90>
    1598:	b7f1                	j	1564 <__ledf2+0x66>
    159a:	fce8efe3          	bltu	a7,a4,1578 <__ledf2+0x7a>
    159e:	bfc5                	j	158e <__ledf2+0x90>
    15a0:	f9058fe3          	beq	a1,a6,153e <__ledf2+0x40>
    15a4:	fa059ce3          	bnez	a1,155c <__ledf2+0x5e>
    15a8:	4781                	li	a5,0
    15aa:	b76d                	j	1554 <__ledf2+0x56>

000015ac <__muldf3>:
    15ac:	7179                	addi	sp,sp,-48
    15ae:	ce4e                	sw	s3,28(sp)
    15b0:	0145d993          	srli	s3,a1,0x14
    15b4:	d422                	sw	s0,40(sp)
    15b6:	d226                	sw	s1,36(sp)
    15b8:	cc52                	sw	s4,24(sp)
    15ba:	ca56                	sw	s5,20(sp)
    15bc:	c65e                	sw	s7,12(sp)
    15be:	00c59493          	slli	s1,a1,0xc
    15c2:	d606                	sw	ra,44(sp)
    15c4:	d04a                	sw	s2,32(sp)
    15c6:	c85a                	sw	s6,16(sp)
    15c8:	7ff9f993          	andi	s3,s3,2047
    15cc:	842a                	mv	s0,a0
    15ce:	8bb2                	mv	s7,a2
    15d0:	8ab6                	mv	s5,a3
    15d2:	80b1                	srli	s1,s1,0xc
    15d4:	01f5da13          	srli	s4,a1,0x1f
    15d8:	08098163          	beqz	s3,165a <__muldf3+0xae>
    15dc:	7ff00793          	li	a5,2047
    15e0:	0cf98a63          	beq	s3,a5,16b4 <__muldf3+0x108>
    15e4:	01d55793          	srli	a5,a0,0x1d
    15e8:	048e                	slli	s1,s1,0x3
    15ea:	8cdd                	or	s1,s1,a5
    15ec:	008007b7          	lui	a5,0x800
    15f0:	8cdd                	or	s1,s1,a5
    15f2:	00351913          	slli	s2,a0,0x3
    15f6:	c0198993          	addi	s3,s3,-1023
    15fa:	4b01                	li	s6,0
    15fc:	014ad513          	srli	a0,s5,0x14
    1600:	00ca9413          	slli	s0,s5,0xc
    1604:	7ff57513          	andi	a0,a0,2047
    1608:	8031                	srli	s0,s0,0xc
    160a:	01fada93          	srli	s5,s5,0x1f
    160e:	c569                	beqz	a0,16d8 <__muldf3+0x12c>
    1610:	7ff00793          	li	a5,2047
    1614:	10f50f63          	beq	a0,a5,1732 <__muldf3+0x186>
    1618:	01dbd793          	srli	a5,s7,0x1d
    161c:	040e                	slli	s0,s0,0x3
    161e:	8c5d                	or	s0,s0,a5
    1620:	008007b7          	lui	a5,0x800
    1624:	8c5d                	or	s0,s0,a5
    1626:	c0150513          	addi	a0,a0,-1023 # 7fc01 <__min_heap_size+0x6fc01>
    162a:	003b9793          	slli	a5,s7,0x3
    162e:	4701                	li	a4,0
    1630:	002b1693          	slli	a3,s6,0x2
    1634:	8ed9                	or	a3,a3,a4
    1636:	954e                	add	a0,a0,s3
    1638:	16fd                	addi	a3,a3,-1
    163a:	4839                	li	a6,14
    163c:	015a4633          	xor	a2,s4,s5
    1640:	00150593          	addi	a1,a0,1
    1644:	10d86863          	bltu	a6,a3,1754 <__muldf3+0x1a8>
    1648:	00007517          	auipc	a0,0x7
    164c:	db050513          	addi	a0,a0,-592 # 83f8 <__srodata+0x148>
    1650:	068a                	slli	a3,a3,0x2
    1652:	96aa                	add	a3,a3,a0
    1654:	4294                	lw	a3,0(a3)
    1656:	96aa                	add	a3,a3,a0
    1658:	8682                	jr	a3
    165a:	00a4e933          	or	s2,s1,a0
    165e:	06090463          	beqz	s2,16c6 <__muldf3+0x11a>
    1662:	02048c63          	beqz	s1,169a <__muldf3+0xee>
    1666:	8526                	mv	a0,s1
    1668:	00001097          	auipc	ra,0x1
    166c:	b42080e7          	jalr	-1214(ra) # 21aa <__clzsi2>
    1670:	ff550713          	addi	a4,a0,-11
    1674:	47f1                	li	a5,28
    1676:	02e7c963          	blt	a5,a4,16a8 <__muldf3+0xfc>
    167a:	47f5                	li	a5,29
    167c:	ff850913          	addi	s2,a0,-8
    1680:	8f99                	sub	a5,a5,a4
    1682:	012494b3          	sll	s1,s1,s2
    1686:	00f457b3          	srl	a5,s0,a5
    168a:	8cdd                	or	s1,s1,a5
    168c:	01241933          	sll	s2,s0,s2
    1690:	c0d00993          	li	s3,-1011
    1694:	40a989b3          	sub	s3,s3,a0
    1698:	b78d                	j	15fa <__muldf3+0x4e>
    169a:	00001097          	auipc	ra,0x1
    169e:	b10080e7          	jalr	-1264(ra) # 21aa <__clzsi2>
    16a2:	02050513          	addi	a0,a0,32
    16a6:	b7e9                	j	1670 <__muldf3+0xc4>
    16a8:	fd850493          	addi	s1,a0,-40
    16ac:	009414b3          	sll	s1,s0,s1
    16b0:	4901                	li	s2,0
    16b2:	bff9                	j	1690 <__muldf3+0xe4>
    16b4:	00a4e933          	or	s2,s1,a0
    16b8:	00090b63          	beqz	s2,16ce <__muldf3+0x122>
    16bc:	892a                	mv	s2,a0
    16be:	7ff00993          	li	s3,2047
    16c2:	4b0d                	li	s6,3
    16c4:	bf25                	j	15fc <__muldf3+0x50>
    16c6:	4481                	li	s1,0
    16c8:	4981                	li	s3,0
    16ca:	4b05                	li	s6,1
    16cc:	bf05                	j	15fc <__muldf3+0x50>
    16ce:	4481                	li	s1,0
    16d0:	7ff00993          	li	s3,2047
    16d4:	4b09                	li	s6,2
    16d6:	b71d                	j	15fc <__muldf3+0x50>
    16d8:	017467b3          	or	a5,s0,s7
    16dc:	c3bd                	beqz	a5,1742 <__muldf3+0x196>
    16de:	02040c63          	beqz	s0,1716 <__muldf3+0x16a>
    16e2:	8522                	mv	a0,s0
    16e4:	00001097          	auipc	ra,0x1
    16e8:	ac6080e7          	jalr	-1338(ra) # 21aa <__clzsi2>
    16ec:	ff550693          	addi	a3,a0,-11
    16f0:	47f1                	li	a5,28
    16f2:	02d7ca63          	blt	a5,a3,1726 <__muldf3+0x17a>
    16f6:	4775                	li	a4,29
    16f8:	ff850793          	addi	a5,a0,-8
    16fc:	8f15                	sub	a4,a4,a3
    16fe:	00f41433          	sll	s0,s0,a5
    1702:	00ebd733          	srl	a4,s7,a4
    1706:	8c59                	or	s0,s0,a4
    1708:	00fb97b3          	sll	a5,s7,a5
    170c:	c0d00713          	li	a4,-1011
    1710:	40a70533          	sub	a0,a4,a0
    1714:	bf29                	j	162e <__muldf3+0x82>
    1716:	855e                	mv	a0,s7
    1718:	00001097          	auipc	ra,0x1
    171c:	a92080e7          	jalr	-1390(ra) # 21aa <__clzsi2>
    1720:	02050513          	addi	a0,a0,32
    1724:	b7e1                	j	16ec <__muldf3+0x140>
    1726:	fd850413          	addi	s0,a0,-40
    172a:	008b9433          	sll	s0,s7,s0
    172e:	4781                	li	a5,0
    1730:	bff1                	j	170c <__muldf3+0x160>
    1732:	017467b3          	or	a5,s0,s7
    1736:	cb91                	beqz	a5,174a <__muldf3+0x19e>
    1738:	87de                	mv	a5,s7
    173a:	7ff00513          	li	a0,2047
    173e:	470d                	li	a4,3
    1740:	bdc5                	j	1630 <__muldf3+0x84>
    1742:	4401                	li	s0,0
    1744:	4501                	li	a0,0
    1746:	4705                	li	a4,1
    1748:	b5e5                	j	1630 <__muldf3+0x84>
    174a:	4401                	li	s0,0
    174c:	7ff00513          	li	a0,2047
    1750:	4709                	li	a4,2
    1752:	bdf9                	j	1630 <__muldf3+0x84>
    1754:	6f41                	lui	t5,0x10
    1756:	ffff0e93          	addi	t4,t5,-1 # ffff <__ctor_end__+0x77bf>
    175a:	01095713          	srli	a4,s2,0x10
    175e:	0107d893          	srli	a7,a5,0x10
    1762:	01d97933          	and	s2,s2,t4
    1766:	01d7f7b3          	and	a5,a5,t4
    176a:	03288833          	mul	a6,a7,s2
    176e:	02f906b3          	mul	a3,s2,a5
    1772:	02f70fb3          	mul	t6,a4,a5
    1776:	01f80333          	add	t1,a6,t6
    177a:	0106d813          	srli	a6,a3,0x10
    177e:	981a                	add	a6,a6,t1
    1780:	03170e33          	mul	t3,a4,a7
    1784:	01f87363          	bgeu	a6,t6,178a <__muldf3+0x1de>
    1788:	9e7a                	add	t3,t3,t5
    178a:	01085393          	srli	t2,a6,0x10
    178e:	01d87833          	and	a6,a6,t4
    1792:	01d6f6b3          	and	a3,a3,t4
    1796:	01045f13          	srli	t5,s0,0x10
    179a:	01d472b3          	and	t0,s0,t4
    179e:	0842                	slli	a6,a6,0x10
    17a0:	9836                	add	a6,a6,a3
    17a2:	02570eb3          	mul	t4,a4,t0
    17a6:	025906b3          	mul	a3,s2,t0
    17aa:	032f0933          	mul	s2,t5,s2
    17ae:	01d90333          	add	t1,s2,t4
    17b2:	0106d913          	srli	s2,a3,0x10
    17b6:	991a                	add	s2,s2,t1
    17b8:	03e70733          	mul	a4,a4,t5
    17bc:	01d97463          	bgeu	s2,t4,17c4 <__muldf3+0x218>
    17c0:	6341                	lui	t1,0x10
    17c2:	971a                	add	a4,a4,t1
    17c4:	01095e93          	srli	t4,s2,0x10
    17c8:	69c1                	lui	s3,0x10
    17ca:	9eba                	add	t4,t4,a4
    17cc:	fff98713          	addi	a4,s3,-1 # ffff <__ctor_end__+0x77bf>
    17d0:	00e97933          	and	s2,s2,a4
    17d4:	8ef9                	and	a3,a3,a4
    17d6:	0104d413          	srli	s0,s1,0x10
    17da:	0942                	slli	s2,s2,0x10
    17dc:	8cf9                	and	s1,s1,a4
    17de:	02978733          	mul	a4,a5,s1
    17e2:	9936                	add	s2,s2,a3
    17e4:	93ca                	add	t2,t2,s2
    17e6:	02f40333          	mul	t1,s0,a5
    17ea:	029886b3          	mul	a3,a7,s1
    17ee:	028887b3          	mul	a5,a7,s0
    17f2:	006688b3          	add	a7,a3,t1
    17f6:	01075693          	srli	a3,a4,0x10
    17fa:	96c6                	add	a3,a3,a7
    17fc:	0066f363          	bgeu	a3,t1,1802 <__muldf3+0x256>
    1800:	97ce                	add	a5,a5,s3
    1802:	0106d893          	srli	a7,a3,0x10
    1806:	69c1                	lui	s3,0x10
    1808:	00f88fb3          	add	t6,a7,a5
    180c:	fff98793          	addi	a5,s3,-1 # ffff <__ctor_end__+0x77bf>
    1810:	029288b3          	mul	a7,t0,s1
    1814:	8efd                	and	a3,a3,a5
    1816:	8f7d                	and	a4,a4,a5
    1818:	06c2                	slli	a3,a3,0x10
    181a:	96ba                	add	a3,a3,a4
    181c:	025407b3          	mul	a5,s0,t0
    1820:	029f04b3          	mul	s1,t5,s1
    1824:	028f0333          	mul	t1,t5,s0
    1828:	94be                	add	s1,s1,a5
    182a:	0108d413          	srli	s0,a7,0x10
    182e:	94a2                	add	s1,s1,s0
    1830:	00f4f363          	bgeu	s1,a5,1836 <__muldf3+0x28a>
    1834:	934e                	add	t1,t1,s3
    1836:	67c1                	lui	a5,0x10
    1838:	17fd                	addi	a5,a5,-1
    183a:	00f4f733          	and	a4,s1,a5
    183e:	00f8f8b3          	and	a7,a7,a5
    1842:	0742                	slli	a4,a4,0x10
    1844:	9e1e                	add	t3,t3,t2
    1846:	9746                	add	a4,a4,a7
    1848:	012e3933          	sltu	s2,t3,s2
    184c:	9776                	add	a4,a4,t4
    184e:	01270433          	add	s0,a4,s2
    1852:	9e36                	add	t3,t3,a3
    1854:	00de36b3          	sltu	a3,t3,a3
    1858:	01f408b3          	add	a7,s0,t6
    185c:	00d88f33          	add	t5,a7,a3
    1860:	01d73733          	sltu	a4,a4,t4
    1864:	01243433          	sltu	s0,s0,s2
    1868:	8c59                	or	s0,s0,a4
    186a:	80c1                	srli	s1,s1,0x10
    186c:	01f8b8b3          	sltu	a7,a7,t6
    1870:	00df36b3          	sltu	a3,t5,a3
    1874:	9426                	add	s0,s0,s1
    1876:	00d8e6b3          	or	a3,a7,a3
    187a:	9436                	add	s0,s0,a3
    187c:	941a                	add	s0,s0,t1
    187e:	017f5793          	srli	a5,t5,0x17
    1882:	0426                	slli	s0,s0,0x9
    1884:	8c5d                	or	s0,s0,a5
    1886:	009e1793          	slli	a5,t3,0x9
    188a:	0107e7b3          	or	a5,a5,a6
    188e:	00f037b3          	snez	a5,a5
    1892:	017e5e13          	srli	t3,t3,0x17
    1896:	009f1713          	slli	a4,t5,0x9
    189a:	01c7e7b3          	or	a5,a5,t3
    189e:	8fd9                	or	a5,a5,a4
    18a0:	01000737          	lui	a4,0x1000
    18a4:	8f61                	and	a4,a4,s0
    18a6:	cb4d                	beqz	a4,1958 <__muldf3+0x3ac>
    18a8:	0017d713          	srli	a4,a5,0x1
    18ac:	8b85                	andi	a5,a5,1
    18ae:	8fd9                	or	a5,a5,a4
    18b0:	01f41713          	slli	a4,s0,0x1f
    18b4:	8fd9                	or	a5,a5,a4
    18b6:	8005                	srli	s0,s0,0x1
    18b8:	3ff58693          	addi	a3,a1,1023
    18bc:	0ad05063          	blez	a3,195c <__muldf3+0x3b0>
    18c0:	0077f713          	andi	a4,a5,7
    18c4:	cf01                	beqz	a4,18dc <__muldf3+0x330>
    18c6:	00f7f713          	andi	a4,a5,15
    18ca:	4511                	li	a0,4
    18cc:	00a70863          	beq	a4,a0,18dc <__muldf3+0x330>
    18d0:	00478713          	addi	a4,a5,4 # 10004 <__min_heap_size+0x4>
    18d4:	00f737b3          	sltu	a5,a4,a5
    18d8:	943e                	add	s0,s0,a5
    18da:	87ba                	mv	a5,a4
    18dc:	01000737          	lui	a4,0x1000
    18e0:	8f61                	and	a4,a4,s0
    18e2:	c719                	beqz	a4,18f0 <__muldf3+0x344>
    18e4:	ff000737          	lui	a4,0xff000
    18e8:	177d                	addi	a4,a4,-1
    18ea:	8c79                	and	s0,s0,a4
    18ec:	40058693          	addi	a3,a1,1024
    18f0:	7fe00713          	li	a4,2046
    18f4:	0ed74e63          	blt	a4,a3,19f0 <__muldf3+0x444>
    18f8:	0037d713          	srli	a4,a5,0x3
    18fc:	01d41793          	slli	a5,s0,0x1d
    1900:	8fd9                	or	a5,a5,a4
    1902:	800d                	srli	s0,s0,0x3
    1904:	01469713          	slli	a4,a3,0x14
    1908:	0432                	slli	s0,s0,0xc
    190a:	7ff006b7          	lui	a3,0x7ff00
    190e:	8f75                	and	a4,a4,a3
    1910:	8031                	srli	s0,s0,0xc
    1912:	8c59                	or	s0,s0,a4
    1914:	067e                	slli	a2,a2,0x1f
    1916:	50b2                	lw	ra,44(sp)
    1918:	00c46733          	or	a4,s0,a2
    191c:	5422                	lw	s0,40(sp)
    191e:	5492                	lw	s1,36(sp)
    1920:	5902                	lw	s2,32(sp)
    1922:	49f2                	lw	s3,28(sp)
    1924:	4a62                	lw	s4,24(sp)
    1926:	4ad2                	lw	s5,20(sp)
    1928:	4b42                	lw	s6,16(sp)
    192a:	4bb2                	lw	s7,12(sp)
    192c:	853e                	mv	a0,a5
    192e:	85ba                	mv	a1,a4
    1930:	6145                	addi	sp,sp,48
    1932:	8082                	ret
    1934:	8652                	mv	a2,s4
    1936:	8426                	mv	s0,s1
    1938:	87ca                	mv	a5,s2
    193a:	875a                	mv	a4,s6
    193c:	4689                	li	a3,2
    193e:	0ad70963          	beq	a4,a3,19f0 <__muldf3+0x444>
    1942:	468d                	li	a3,3
    1944:	08d70f63          	beq	a4,a3,19e2 <__muldf3+0x436>
    1948:	4685                	li	a3,1
    194a:	f6d717e3          	bne	a4,a3,18b8 <__muldf3+0x30c>
    194e:	4401                	li	s0,0
    1950:	4781                	li	a5,0
    1952:	a09d                	j	19b8 <__muldf3+0x40c>
    1954:	8656                	mv	a2,s5
    1956:	b7dd                	j	193c <__muldf3+0x390>
    1958:	85aa                	mv	a1,a0
    195a:	bfb9                	j	18b8 <__muldf3+0x30c>
    195c:	4505                	li	a0,1
    195e:	8d15                	sub	a0,a0,a3
    1960:	03800713          	li	a4,56
    1964:	fea745e3          	blt	a4,a0,194e <__muldf3+0x3a2>
    1968:	477d                	li	a4,31
    196a:	04a74963          	blt	a4,a0,19bc <__muldf3+0x410>
    196e:	41e58593          	addi	a1,a1,1054
    1972:	00b41733          	sll	a4,s0,a1
    1976:	00a7d6b3          	srl	a3,a5,a0
    197a:	00b797b3          	sll	a5,a5,a1
    197e:	8f55                	or	a4,a4,a3
    1980:	00f037b3          	snez	a5,a5
    1984:	8fd9                	or	a5,a5,a4
    1986:	00a45433          	srl	s0,s0,a0
    198a:	0077f713          	andi	a4,a5,7
    198e:	cf01                	beqz	a4,19a6 <__muldf3+0x3fa>
    1990:	00f7f713          	andi	a4,a5,15
    1994:	4691                	li	a3,4
    1996:	00d70863          	beq	a4,a3,19a6 <__muldf3+0x3fa>
    199a:	00478713          	addi	a4,a5,4
    199e:	00f737b3          	sltu	a5,a4,a5
    19a2:	943e                	add	s0,s0,a5
    19a4:	87ba                	mv	a5,a4
    19a6:	00800737          	lui	a4,0x800
    19aa:	8f61                	and	a4,a4,s0
    19ac:	e739                	bnez	a4,19fa <__muldf3+0x44e>
    19ae:	01d41713          	slli	a4,s0,0x1d
    19b2:	838d                	srli	a5,a5,0x3
    19b4:	8fd9                	or	a5,a5,a4
    19b6:	800d                	srli	s0,s0,0x3
    19b8:	4681                	li	a3,0
    19ba:	b7a9                	j	1904 <__muldf3+0x358>
    19bc:	5705                	li	a4,-31
    19be:	8f15                	sub	a4,a4,a3
    19c0:	02000813          	li	a6,32
    19c4:	00e45733          	srl	a4,s0,a4
    19c8:	4681                	li	a3,0
    19ca:	01050663          	beq	a0,a6,19d6 <__muldf3+0x42a>
    19ce:	43e58593          	addi	a1,a1,1086
    19d2:	00b416b3          	sll	a3,s0,a1
    19d6:	8fd5                	or	a5,a5,a3
    19d8:	00f037b3          	snez	a5,a5
    19dc:	8fd9                	or	a5,a5,a4
    19de:	4401                	li	s0,0
    19e0:	b76d                	j	198a <__muldf3+0x3de>
    19e2:	00080437          	lui	s0,0x80
    19e6:	4781                	li	a5,0
    19e8:	7ff00693          	li	a3,2047
    19ec:	4601                	li	a2,0
    19ee:	bf19                	j	1904 <__muldf3+0x358>
    19f0:	4401                	li	s0,0
    19f2:	4781                	li	a5,0
    19f4:	7ff00693          	li	a3,2047
    19f8:	b731                	j	1904 <__muldf3+0x358>
    19fa:	4401                	li	s0,0
    19fc:	4781                	li	a5,0
    19fe:	4685                	li	a3,1
    1a00:	b711                	j	1904 <__muldf3+0x358>

00001a02 <__subdf3>:
    1a02:	00100837          	lui	a6,0x100
    1a06:	187d                	addi	a6,a6,-1
    1a08:	1101                	addi	sp,sp,-32
    1a0a:	00b877b3          	and	a5,a6,a1
    1a0e:	0145d713          	srli	a4,a1,0x14
    1a12:	00d87833          	and	a6,a6,a3
    1a16:	0146d313          	srli	t1,a3,0x14
    1a1a:	cc22                	sw	s0,24(sp)
    1a1c:	078e                	slli	a5,a5,0x3
    1a1e:	7ff77413          	andi	s0,a4,2047
    1a22:	01d55713          	srli	a4,a0,0x1d
    1a26:	ca26                	sw	s1,20(sp)
    1a28:	8fd9                	or	a5,a5,a4
    1a2a:	01f5d493          	srli	s1,a1,0x1f
    1a2e:	01d65713          	srli	a4,a2,0x1d
    1a32:	00351593          	slli	a1,a0,0x3
    1a36:	080e                	slli	a6,a6,0x3
    1a38:	ce06                	sw	ra,28(sp)
    1a3a:	c84a                	sw	s2,16(sp)
    1a3c:	c64e                	sw	s3,12(sp)
    1a3e:	7ff37313          	andi	t1,t1,2047
    1a42:	7ff00513          	li	a0,2047
    1a46:	82fd                	srli	a3,a3,0x1f
    1a48:	01076733          	or	a4,a4,a6
    1a4c:	060e                	slli	a2,a2,0x3
    1a4e:	00a31563          	bne	t1,a0,1a58 <__subdf3+0x56>
    1a52:	00c76533          	or	a0,a4,a2
    1a56:	e119                	bnez	a0,1a5c <__subdf3+0x5a>
    1a58:	0016c693          	xori	a3,a3,1
    1a5c:	40640833          	sub	a6,s0,t1
    1a60:	22969863          	bne	a3,s1,1c90 <__subdf3+0x28e>
    1a64:	0f005363          	blez	a6,1b4a <__subdf3+0x148>
    1a68:	02031863          	bnez	t1,1a98 <__subdf3+0x96>
    1a6c:	00c766b3          	or	a3,a4,a2
    1a70:	58068763          	beqz	a3,1ffe <__subdf3+0x5fc>
    1a74:	fff80513          	addi	a0,a6,-1 # fffff <__min_heap_size+0xeffff>
    1a78:	e909                	bnez	a0,1a8a <__subdf3+0x88>
    1a7a:	962e                	add	a2,a2,a1
    1a7c:	00b63533          	sltu	a0,a2,a1
    1a80:	97ba                	add	a5,a5,a4
    1a82:	97aa                	add	a5,a5,a0
    1a84:	85b2                	mv	a1,a2
    1a86:	4405                	li	s0,1
    1a88:	a8b9                	j	1ae6 <__subdf3+0xe4>
    1a8a:	7ff00693          	li	a3,2047
    1a8e:	00d81d63          	bne	a6,a3,1aa8 <__subdf3+0xa6>
    1a92:	7ff00413          	li	s0,2047
    1a96:	a24d                	j	1c38 <__subdf3+0x236>
    1a98:	7ff00693          	li	a3,2047
    1a9c:	18d40e63          	beq	s0,a3,1c38 <__subdf3+0x236>
    1aa0:	008006b7          	lui	a3,0x800
    1aa4:	8f55                	or	a4,a4,a3
    1aa6:	8542                	mv	a0,a6
    1aa8:	03800693          	li	a3,56
    1aac:	08a6cb63          	blt	a3,a0,1b42 <__subdf3+0x140>
    1ab0:	46fd                	li	a3,31
    1ab2:	06a6c263          	blt	a3,a0,1b16 <__subdf3+0x114>
    1ab6:	02000813          	li	a6,32
    1aba:	40a80833          	sub	a6,a6,a0
    1abe:	010716b3          	sll	a3,a4,a6
    1ac2:	00a658b3          	srl	a7,a2,a0
    1ac6:	01061633          	sll	a2,a2,a6
    1aca:	0116e6b3          	or	a3,a3,a7
    1ace:	00c03633          	snez	a2,a2
    1ad2:	8e55                	or	a2,a2,a3
    1ad4:	00a75733          	srl	a4,a4,a0
    1ad8:	962e                	add	a2,a2,a1
    1ada:	00b63533          	sltu	a0,a2,a1
    1ade:	973e                	add	a4,a4,a5
    1ae0:	00a707b3          	add	a5,a4,a0
    1ae4:	85b2                	mv	a1,a2
    1ae6:	00800737          	lui	a4,0x800
    1aea:	8f7d                	and	a4,a4,a5
    1aec:	14070663          	beqz	a4,1c38 <__subdf3+0x236>
    1af0:	0405                	addi	s0,s0,1
    1af2:	7ff00713          	li	a4,2047
    1af6:	4ae40163          	beq	s0,a4,1f98 <__subdf3+0x596>
    1afa:	ff800737          	lui	a4,0xff800
    1afe:	177d                	addi	a4,a4,-1
    1b00:	8ff9                	and	a5,a5,a4
    1b02:	0015f513          	andi	a0,a1,1
    1b06:	0015d713          	srli	a4,a1,0x1
    1b0a:	8d59                	or	a0,a0,a4
    1b0c:	01f79593          	slli	a1,a5,0x1f
    1b10:	8dc9                	or	a1,a1,a0
    1b12:	8385                	srli	a5,a5,0x1
    1b14:	a215                	j	1c38 <__subdf3+0x236>
    1b16:	fe050693          	addi	a3,a0,-32
    1b1a:	02000893          	li	a7,32
    1b1e:	00d756b3          	srl	a3,a4,a3
    1b22:	4801                	li	a6,0
    1b24:	01150863          	beq	a0,a7,1b34 <__subdf3+0x132>
    1b28:	04000813          	li	a6,64
    1b2c:	40a80533          	sub	a0,a6,a0
    1b30:	00a71833          	sll	a6,a4,a0
    1b34:	00c86633          	or	a2,a6,a2
    1b38:	00c03633          	snez	a2,a2
    1b3c:	8e55                	or	a2,a2,a3
    1b3e:	4701                	li	a4,0
    1b40:	bf61                	j	1ad8 <__subdf3+0xd6>
    1b42:	8e59                	or	a2,a2,a4
    1b44:	00c03633          	snez	a2,a2
    1b48:	bfdd                	j	1b3e <__subdf3+0x13c>
    1b4a:	0a080b63          	beqz	a6,1c00 <__subdf3+0x1fe>
    1b4e:	40830533          	sub	a0,t1,s0
    1b52:	e40d                	bnez	s0,1b7c <__subdf3+0x17a>
    1b54:	00b7e6b3          	or	a3,a5,a1
    1b58:	42068763          	beqz	a3,1f86 <__subdf3+0x584>
    1b5c:	fff50693          	addi	a3,a0,-1
    1b60:	e699                	bnez	a3,1b6e <__subdf3+0x16c>
    1b62:	95b2                	add	a1,a1,a2
    1b64:	97ba                	add	a5,a5,a4
    1b66:	00c5b633          	sltu	a2,a1,a2
    1b6a:	97b2                	add	a5,a5,a2
    1b6c:	bf29                	j	1a86 <__subdf3+0x84>
    1b6e:	7ff00813          	li	a6,2047
    1b72:	01051d63          	bne	a0,a6,1b8c <__subdf3+0x18a>
    1b76:	87ba                	mv	a5,a4
    1b78:	85b2                	mv	a1,a2
    1b7a:	bf21                	j	1a92 <__subdf3+0x90>
    1b7c:	7ff00693          	li	a3,2047
    1b80:	fed30be3          	beq	t1,a3,1b76 <__subdf3+0x174>
    1b84:	008006b7          	lui	a3,0x800
    1b88:	8fd5                	or	a5,a5,a3
    1b8a:	86aa                	mv	a3,a0
    1b8c:	03800513          	li	a0,56
    1b90:	06d54363          	blt	a0,a3,1bf6 <__subdf3+0x1f4>
    1b94:	457d                	li	a0,31
    1b96:	02d54b63          	blt	a0,a3,1bcc <__subdf3+0x1ca>
    1b9a:	02000813          	li	a6,32
    1b9e:	40d80833          	sub	a6,a6,a3
    1ba2:	01079533          	sll	a0,a5,a6
    1ba6:	00d5d8b3          	srl	a7,a1,a3
    1baa:	010595b3          	sll	a1,a1,a6
    1bae:	01156533          	or	a0,a0,a7
    1bb2:	00b035b3          	snez	a1,a1
    1bb6:	8d4d                	or	a0,a0,a1
    1bb8:	00d7d7b3          	srl	a5,a5,a3
    1bbc:	00c505b3          	add	a1,a0,a2
    1bc0:	97ba                	add	a5,a5,a4
    1bc2:	00c5b633          	sltu	a2,a1,a2
    1bc6:	97b2                	add	a5,a5,a2
    1bc8:	841a                	mv	s0,t1
    1bca:	bf31                	j	1ae6 <__subdf3+0xe4>
    1bcc:	fe068513          	addi	a0,a3,-32 # 7fffe0 <__min_heap_size+0x7effe0>
    1bd0:	02000893          	li	a7,32
    1bd4:	00a7d833          	srl	a6,a5,a0
    1bd8:	4501                	li	a0,0
    1bda:	01168763          	beq	a3,a7,1be8 <__subdf3+0x1e6>
    1bde:	04000513          	li	a0,64
    1be2:	8d15                	sub	a0,a0,a3
    1be4:	00a79533          	sll	a0,a5,a0
    1be8:	8d4d                	or	a0,a0,a1
    1bea:	00a03533          	snez	a0,a0
    1bee:	00a86533          	or	a0,a6,a0
    1bf2:	4781                	li	a5,0
    1bf4:	b7e1                	j	1bbc <__subdf3+0x1ba>
    1bf6:	00b7e533          	or	a0,a5,a1
    1bfa:	00a03533          	snez	a0,a0
    1bfe:	bfd5                	j	1bf2 <__subdf3+0x1f0>
    1c00:	00140693          	addi	a3,s0,1 # 80001 <__min_heap_size+0x70001>
    1c04:	7fe6f513          	andi	a0,a3,2046
    1c08:	e13d                	bnez	a0,1c6e <__subdf3+0x26c>
    1c0a:	00b7e6b3          	or	a3,a5,a1
    1c0e:	e429                	bnez	s0,1c58 <__subdf3+0x256>
    1c10:	36068f63          	beqz	a3,1f8e <__subdf3+0x58c>
    1c14:	00c766b3          	or	a3,a4,a2
    1c18:	c285                	beqz	a3,1c38 <__subdf3+0x236>
    1c1a:	962e                	add	a2,a2,a1
    1c1c:	97ba                	add	a5,a5,a4
    1c1e:	00b63533          	sltu	a0,a2,a1
    1c22:	97aa                	add	a5,a5,a0
    1c24:	00800737          	lui	a4,0x800
    1c28:	8f7d                	and	a4,a4,a5
    1c2a:	85b2                	mv	a1,a2
    1c2c:	c711                	beqz	a4,1c38 <__subdf3+0x236>
    1c2e:	ff800737          	lui	a4,0xff800
    1c32:	177d                	addi	a4,a4,-1
    1c34:	8ff9                	and	a5,a5,a4
    1c36:	4405                	li	s0,1
    1c38:	0075f713          	andi	a4,a1,7
    1c3c:	36070063          	beqz	a4,1f9c <__subdf3+0x59a>
    1c40:	00f5f713          	andi	a4,a1,15
    1c44:	4691                	li	a3,4
    1c46:	34d70b63          	beq	a4,a3,1f9c <__subdf3+0x59a>
    1c4a:	00458713          	addi	a4,a1,4
    1c4e:	00b73533          	sltu	a0,a4,a1
    1c52:	97aa                	add	a5,a5,a0
    1c54:	85ba                	mv	a1,a4
    1c56:	a699                	j	1f9c <__subdf3+0x59a>
    1c58:	de99                	beqz	a3,1b76 <__subdf3+0x174>
    1c5a:	8e59                	or	a2,a2,a4
    1c5c:	e2060be3          	beqz	a2,1a92 <__subdf3+0x90>
    1c60:	4481                	li	s1,0
    1c62:	004007b7          	lui	a5,0x400
    1c66:	4581                	li	a1,0
    1c68:	7ff00413          	li	s0,2047
    1c6c:	ae05                	j	1f9c <__subdf3+0x59a>
    1c6e:	7ff00513          	li	a0,2047
    1c72:	32a68163          	beq	a3,a0,1f94 <__subdf3+0x592>
    1c76:	962e                	add	a2,a2,a1
    1c78:	00b63533          	sltu	a0,a2,a1
    1c7c:	97ba                	add	a5,a5,a4
    1c7e:	97aa                	add	a5,a5,a0
    1c80:	01f79513          	slli	a0,a5,0x1f
    1c84:	8205                	srli	a2,a2,0x1
    1c86:	00c565b3          	or	a1,a0,a2
    1c8a:	8385                	srli	a5,a5,0x1
    1c8c:	8436                	mv	s0,a3
    1c8e:	b76d                	j	1c38 <__subdf3+0x236>
    1c90:	0d005663          	blez	a6,1d5c <__subdf3+0x35a>
    1c94:	08031163          	bnez	t1,1d16 <__subdf3+0x314>
    1c98:	00c766b3          	or	a3,a4,a2
    1c9c:	36068163          	beqz	a3,1ffe <__subdf3+0x5fc>
    1ca0:	fff80513          	addi	a0,a6,-1
    1ca4:	e911                	bnez	a0,1cb8 <__subdf3+0x2b6>
    1ca6:	40c58633          	sub	a2,a1,a2
    1caa:	00c5b533          	sltu	a0,a1,a2
    1cae:	8f99                	sub	a5,a5,a4
    1cb0:	8f89                	sub	a5,a5,a0
    1cb2:	85b2                	mv	a1,a2
    1cb4:	4405                	li	s0,1
    1cb6:	a0b1                	j	1d02 <__subdf3+0x300>
    1cb8:	7ff00693          	li	a3,2047
    1cbc:	dcd80be3          	beq	a6,a3,1a92 <__subdf3+0x90>
    1cc0:	03800693          	li	a3,56
    1cc4:	08a6c863          	blt	a3,a0,1d54 <__subdf3+0x352>
    1cc8:	46fd                	li	a3,31
    1cca:	04a6cf63          	blt	a3,a0,1d28 <__subdf3+0x326>
    1cce:	02000813          	li	a6,32
    1cd2:	40a80833          	sub	a6,a6,a0
    1cd6:	010716b3          	sll	a3,a4,a6
    1cda:	00a658b3          	srl	a7,a2,a0
    1cde:	01061633          	sll	a2,a2,a6
    1ce2:	0116e6b3          	or	a3,a3,a7
    1ce6:	00c03633          	snez	a2,a2
    1cea:	8e55                	or	a2,a2,a3
    1cec:	00a75733          	srl	a4,a4,a0
    1cf0:	40c58633          	sub	a2,a1,a2
    1cf4:	00c5b533          	sltu	a0,a1,a2
    1cf8:	40e78733          	sub	a4,a5,a4
    1cfc:	40a707b3          	sub	a5,a4,a0
    1d00:	85b2                	mv	a1,a2
    1d02:	00800937          	lui	s2,0x800
    1d06:	0127f733          	and	a4,a5,s2
    1d0a:	d71d                	beqz	a4,1c38 <__subdf3+0x236>
    1d0c:	197d                	addi	s2,s2,-1
    1d0e:	0127f933          	and	s2,a5,s2
    1d12:	89ae                	mv	s3,a1
    1d14:	aa5d                	j	1eca <__subdf3+0x4c8>
    1d16:	7ff00693          	li	a3,2047
    1d1a:	f0d40fe3          	beq	s0,a3,1c38 <__subdf3+0x236>
    1d1e:	008006b7          	lui	a3,0x800
    1d22:	8f55                	or	a4,a4,a3
    1d24:	8542                	mv	a0,a6
    1d26:	bf69                	j	1cc0 <__subdf3+0x2be>
    1d28:	fe050693          	addi	a3,a0,-32
    1d2c:	02000893          	li	a7,32
    1d30:	00d756b3          	srl	a3,a4,a3
    1d34:	4801                	li	a6,0
    1d36:	01150863          	beq	a0,a7,1d46 <__subdf3+0x344>
    1d3a:	04000813          	li	a6,64
    1d3e:	40a80533          	sub	a0,a6,a0
    1d42:	00a71833          	sll	a6,a4,a0
    1d46:	00c86633          	or	a2,a6,a2
    1d4a:	00c03633          	snez	a2,a2
    1d4e:	8e55                	or	a2,a2,a3
    1d50:	4701                	li	a4,0
    1d52:	bf79                	j	1cf0 <__subdf3+0x2ee>
    1d54:	8e59                	or	a2,a2,a4
    1d56:	00c03633          	snez	a2,a2
    1d5a:	bfdd                	j	1d50 <__subdf3+0x34e>
    1d5c:	0c080563          	beqz	a6,1e26 <__subdf3+0x424>
    1d60:	40830533          	sub	a0,t1,s0
    1d64:	e81d                	bnez	s0,1d9a <__subdf3+0x398>
    1d66:	00b7e833          	or	a6,a5,a1
    1d6a:	28080c63          	beqz	a6,2002 <__subdf3+0x600>
    1d6e:	fff50813          	addi	a6,a0,-1
    1d72:	00081b63          	bnez	a6,1d88 <__subdf3+0x386>
    1d76:	40b605b3          	sub	a1,a2,a1
    1d7a:	40f707b3          	sub	a5,a4,a5
    1d7e:	00b63633          	sltu	a2,a2,a1
    1d82:	8f91                	sub	a5,a5,a2
    1d84:	84b6                	mv	s1,a3
    1d86:	b73d                	j	1cb4 <__subdf3+0x2b2>
    1d88:	7ff00893          	li	a7,2047
    1d8c:	03151063          	bne	a0,a7,1dac <__subdf3+0x3aa>
    1d90:	87ba                	mv	a5,a4
    1d92:	85b2                	mv	a1,a2
    1d94:	7ff00413          	li	s0,2047
    1d98:	a07d                	j	1e46 <__subdf3+0x444>
    1d9a:	7ff00813          	li	a6,2047
    1d9e:	ff0309e3          	beq	t1,a6,1d90 <__subdf3+0x38e>
    1da2:	00800837          	lui	a6,0x800
    1da6:	0107e7b3          	or	a5,a5,a6
    1daa:	882a                	mv	a6,a0
    1dac:	03800513          	li	a0,56
    1db0:	07054663          	blt	a0,a6,1e1c <__subdf3+0x41a>
    1db4:	457d                	li	a0,31
    1db6:	03054d63          	blt	a0,a6,1df0 <__subdf3+0x3ee>
    1dba:	02000893          	li	a7,32
    1dbe:	410888b3          	sub	a7,a7,a6
    1dc2:	01179533          	sll	a0,a5,a7
    1dc6:	0105de33          	srl	t3,a1,a6
    1dca:	011595b3          	sll	a1,a1,a7
    1dce:	01c56533          	or	a0,a0,t3
    1dd2:	00b035b3          	snez	a1,a1
    1dd6:	8d4d                	or	a0,a0,a1
    1dd8:	0107d7b3          	srl	a5,a5,a6
    1ddc:	40a605b3          	sub	a1,a2,a0
    1de0:	40f707b3          	sub	a5,a4,a5
    1de4:	00b63633          	sltu	a2,a2,a1
    1de8:	8f91                	sub	a5,a5,a2
    1dea:	841a                	mv	s0,t1
    1dec:	84b6                	mv	s1,a3
    1dee:	bf11                	j	1d02 <__subdf3+0x300>
    1df0:	fe080513          	addi	a0,a6,-32 # 7fffe0 <__min_heap_size+0x7effe0>
    1df4:	02000e13          	li	t3,32
    1df8:	00a7d8b3          	srl	a7,a5,a0
    1dfc:	4501                	li	a0,0
    1dfe:	01c80863          	beq	a6,t3,1e0e <__subdf3+0x40c>
    1e02:	04000513          	li	a0,64
    1e06:	41050533          	sub	a0,a0,a6
    1e0a:	00a79533          	sll	a0,a5,a0
    1e0e:	8d4d                	or	a0,a0,a1
    1e10:	00a03533          	snez	a0,a0
    1e14:	00a8e533          	or	a0,a7,a0
    1e18:	4781                	li	a5,0
    1e1a:	b7c9                	j	1ddc <__subdf3+0x3da>
    1e1c:	00b7e533          	or	a0,a5,a1
    1e20:	00a03533          	snez	a0,a0
    1e24:	bfd5                	j	1e18 <__subdf3+0x416>
    1e26:	00140513          	addi	a0,s0,1
    1e2a:	7fe57513          	andi	a0,a0,2046
    1e2e:	e925                	bnez	a0,1e9e <__subdf3+0x49c>
    1e30:	00b7e833          	or	a6,a5,a1
    1e34:	00c76533          	or	a0,a4,a2
    1e38:	e821                	bnez	s0,1e88 <__subdf3+0x486>
    1e3a:	00081863          	bnez	a6,1e4a <__subdf3+0x448>
    1e3e:	1c050663          	beqz	a0,200a <__subdf3+0x608>
    1e42:	87ba                	mv	a5,a4
    1e44:	85b2                	mv	a1,a2
    1e46:	84b6                	mv	s1,a3
    1e48:	bbc5                	j	1c38 <__subdf3+0x236>
    1e4a:	de0507e3          	beqz	a0,1c38 <__subdf3+0x236>
    1e4e:	40c58833          	sub	a6,a1,a2
    1e52:	0105b8b3          	sltu	a7,a1,a6
    1e56:	40e78533          	sub	a0,a5,a4
    1e5a:	41150533          	sub	a0,a0,a7
    1e5e:	008008b7          	lui	a7,0x800
    1e62:	011578b3          	and	a7,a0,a7
    1e66:	00088a63          	beqz	a7,1e7a <__subdf3+0x478>
    1e6a:	40b605b3          	sub	a1,a2,a1
    1e6e:	40f707b3          	sub	a5,a4,a5
    1e72:	00b63633          	sltu	a2,a2,a1
    1e76:	8f91                	sub	a5,a5,a2
    1e78:	b7f9                	j	1e46 <__subdf3+0x444>
    1e7a:	00a865b3          	or	a1,a6,a0
    1e7e:	18058a63          	beqz	a1,2012 <__subdf3+0x610>
    1e82:	87aa                	mv	a5,a0
    1e84:	85c2                	mv	a1,a6
    1e86:	bb4d                	j	1c38 <__subdf3+0x236>
    1e88:	00081863          	bnez	a6,1e98 <__subdf3+0x496>
    1e8c:	18050563          	beqz	a0,2016 <__subdf3+0x614>
    1e90:	87ba                	mv	a5,a4
    1e92:	85b2                	mv	a1,a2
    1e94:	84b6                	mv	s1,a3
    1e96:	bef5                	j	1a92 <__subdf3+0x90>
    1e98:	be050de3          	beqz	a0,1a92 <__subdf3+0x90>
    1e9c:	b3d1                	j	1c60 <__subdf3+0x25e>
    1e9e:	40c589b3          	sub	s3,a1,a2
    1ea2:	0135b533          	sltu	a0,a1,s3
    1ea6:	40e78933          	sub	s2,a5,a4
    1eaa:	40a90933          	sub	s2,s2,a0
    1eae:	00800537          	lui	a0,0x800
    1eb2:	00a97533          	and	a0,s2,a0
    1eb6:	c935                	beqz	a0,1f2a <__subdf3+0x528>
    1eb8:	40b609b3          	sub	s3,a2,a1
    1ebc:	40f707b3          	sub	a5,a4,a5
    1ec0:	01363633          	sltu	a2,a2,s3
    1ec4:	40c78933          	sub	s2,a5,a2
    1ec8:	84b6                	mv	s1,a3
    1eca:	06090663          	beqz	s2,1f36 <__subdf3+0x534>
    1ece:	854a                	mv	a0,s2
    1ed0:	00000097          	auipc	ra,0x0
    1ed4:	2da080e7          	jalr	730(ra) # 21aa <__clzsi2>
    1ed8:	ff850713          	addi	a4,a0,-8 # 7ffff8 <__min_heap_size+0x7efff8>
    1edc:	47fd                	li	a5,31
    1ede:	06e7c463          	blt	a5,a4,1f46 <__subdf3+0x544>
    1ee2:	02000793          	li	a5,32
    1ee6:	8f99                	sub	a5,a5,a4
    1ee8:	00e91933          	sll	s2,s2,a4
    1eec:	00f9d7b3          	srl	a5,s3,a5
    1ef0:	0127e7b3          	or	a5,a5,s2
    1ef4:	00e995b3          	sll	a1,s3,a4
    1ef8:	08874163          	blt	a4,s0,1f7a <__subdf3+0x578>
    1efc:	8f01                	sub	a4,a4,s0
    1efe:	00170693          	addi	a3,a4,1 # ff800001 <__heap_end+0xdf7e0001>
    1f02:	467d                	li	a2,31
    1f04:	04d64763          	blt	a2,a3,1f52 <__subdf3+0x550>
    1f08:	02000713          	li	a4,32
    1f0c:	8f15                	sub	a4,a4,a3
    1f0e:	00e79633          	sll	a2,a5,a4
    1f12:	00d5d533          	srl	a0,a1,a3
    1f16:	00e595b3          	sll	a1,a1,a4
    1f1a:	8e49                	or	a2,a2,a0
    1f1c:	00b035b3          	snez	a1,a1
    1f20:	8dd1                	or	a1,a1,a2
    1f22:	00d7d7b3          	srl	a5,a5,a3
    1f26:	4401                	li	s0,0
    1f28:	bb01                	j	1c38 <__subdf3+0x236>
    1f2a:	0129e5b3          	or	a1,s3,s2
    1f2e:	fdd1                	bnez	a1,1eca <__subdf3+0x4c8>
    1f30:	4781                	li	a5,0
    1f32:	4401                	li	s0,0
    1f34:	a8e9                	j	200e <__subdf3+0x60c>
    1f36:	854e                	mv	a0,s3
    1f38:	00000097          	auipc	ra,0x0
    1f3c:	272080e7          	jalr	626(ra) # 21aa <__clzsi2>
    1f40:	02050513          	addi	a0,a0,32
    1f44:	bf51                	j	1ed8 <__subdf3+0x4d6>
    1f46:	fd850793          	addi	a5,a0,-40
    1f4a:	00f997b3          	sll	a5,s3,a5
    1f4e:	4581                	li	a1,0
    1f50:	b765                	j	1ef8 <__subdf3+0x4f6>
    1f52:	1705                	addi	a4,a4,-31
    1f54:	02000613          	li	a2,32
    1f58:	00e7d733          	srl	a4,a5,a4
    1f5c:	4501                	li	a0,0
    1f5e:	00c68763          	beq	a3,a2,1f6c <__subdf3+0x56a>
    1f62:	04000513          	li	a0,64
    1f66:	8d15                	sub	a0,a0,a3
    1f68:	00a79533          	sll	a0,a5,a0
    1f6c:	8d4d                	or	a0,a0,a1
    1f6e:	00a03533          	snez	a0,a0
    1f72:	00a765b3          	or	a1,a4,a0
    1f76:	4781                	li	a5,0
    1f78:	b77d                	j	1f26 <__subdf3+0x524>
    1f7a:	8c19                	sub	s0,s0,a4
    1f7c:	ff800737          	lui	a4,0xff800
    1f80:	177d                	addi	a4,a4,-1
    1f82:	8ff9                	and	a5,a5,a4
    1f84:	b955                	j	1c38 <__subdf3+0x236>
    1f86:	87ba                	mv	a5,a4
    1f88:	85b2                	mv	a1,a2
    1f8a:	842a                	mv	s0,a0
    1f8c:	b175                	j	1c38 <__subdf3+0x236>
    1f8e:	87ba                	mv	a5,a4
    1f90:	85b2                	mv	a1,a2
    1f92:	b15d                	j	1c38 <__subdf3+0x236>
    1f94:	7ff00413          	li	s0,2047
    1f98:	4781                	li	a5,0
    1f9a:	4581                	li	a1,0
    1f9c:	00800737          	lui	a4,0x800
    1fa0:	8f7d                	and	a4,a4,a5
    1fa2:	cb11                	beqz	a4,1fb6 <__subdf3+0x5b4>
    1fa4:	0405                	addi	s0,s0,1
    1fa6:	7ff00713          	li	a4,2047
    1faa:	06e40b63          	beq	s0,a4,2020 <__subdf3+0x61e>
    1fae:	ff800737          	lui	a4,0xff800
    1fb2:	177d                	addi	a4,a4,-1
    1fb4:	8ff9                	and	a5,a5,a4
    1fb6:	01d79713          	slli	a4,a5,0x1d
    1fba:	0035d513          	srli	a0,a1,0x3
    1fbe:	8d59                	or	a0,a0,a4
    1fc0:	7ff00713          	li	a4,2047
    1fc4:	838d                	srli	a5,a5,0x3
    1fc6:	00e41963          	bne	s0,a4,1fd8 <__subdf3+0x5d6>
    1fca:	8d5d                	or	a0,a0,a5
    1fcc:	4781                	li	a5,0
    1fce:	c509                	beqz	a0,1fd8 <__subdf3+0x5d6>
    1fd0:	000807b7          	lui	a5,0x80
    1fd4:	4501                	li	a0,0
    1fd6:	4481                	li	s1,0
    1fd8:	01441713          	slli	a4,s0,0x14
    1fdc:	7ff006b7          	lui	a3,0x7ff00
    1fe0:	07b2                	slli	a5,a5,0xc
    1fe2:	40f2                	lw	ra,28(sp)
    1fe4:	4462                	lw	s0,24(sp)
    1fe6:	8f75                	and	a4,a4,a3
    1fe8:	83b1                	srli	a5,a5,0xc
    1fea:	04fe                	slli	s1,s1,0x1f
    1fec:	8fd9                	or	a5,a5,a4
    1fee:	0097e733          	or	a4,a5,s1
    1ff2:	4942                	lw	s2,16(sp)
    1ff4:	44d2                	lw	s1,20(sp)
    1ff6:	49b2                	lw	s3,12(sp)
    1ff8:	85ba                	mv	a1,a4
    1ffa:	6105                	addi	sp,sp,32
    1ffc:	8082                	ret
    1ffe:	8442                	mv	s0,a6
    2000:	b925                	j	1c38 <__subdf3+0x236>
    2002:	87ba                	mv	a5,a4
    2004:	85b2                	mv	a1,a2
    2006:	842a                	mv	s0,a0
    2008:	bd3d                	j	1e46 <__subdf3+0x444>
    200a:	4781                	li	a5,0
    200c:	4581                	li	a1,0
    200e:	4481                	li	s1,0
    2010:	b771                	j	1f9c <__subdf3+0x59a>
    2012:	4781                	li	a5,0
    2014:	bfed                	j	200e <__subdf3+0x60c>
    2016:	4581                	li	a1,0
    2018:	4481                	li	s1,0
    201a:	004007b7          	lui	a5,0x400
    201e:	b1a9                	j	1c68 <__subdf3+0x266>
    2020:	4781                	li	a5,0
    2022:	4581                	li	a1,0
    2024:	bf49                	j	1fb6 <__subdf3+0x5b4>

00002026 <__fixdfsi>:
    2026:	0145d713          	srli	a4,a1,0x14
    202a:	001006b7          	lui	a3,0x100
    202e:	fff68793          	addi	a5,a3,-1 # fffff <__min_heap_size+0xeffff>
    2032:	7ff77713          	andi	a4,a4,2047
    2036:	3fe00613          	li	a2,1022
    203a:	8fed                	and	a5,a5,a1
    203c:	81fd                	srli	a1,a1,0x1f
    203e:	04e65463          	bge	a2,a4,2086 <__fixdfsi+0x60>
    2042:	41d00613          	li	a2,1053
    2046:	00e65863          	bge	a2,a4,2056 <__fixdfsi+0x30>
    204a:	80000537          	lui	a0,0x80000
    204e:	fff54513          	not	a0,a0
    2052:	952e                	add	a0,a0,a1
    2054:	8082                	ret
    2056:	8fd5                	or	a5,a5,a3
    2058:	43300693          	li	a3,1075
    205c:	8e99                	sub	a3,a3,a4
    205e:	467d                	li	a2,31
    2060:	00d64d63          	blt	a2,a3,207a <__fixdfsi+0x54>
    2064:	bed70713          	addi	a4,a4,-1043 # ff7ffbed <__heap_end+0xdf7dfbed>
    2068:	00e797b3          	sll	a5,a5,a4
    206c:	00d55533          	srl	a0,a0,a3
    2070:	8d5d                	or	a0,a0,a5
    2072:	c999                	beqz	a1,2088 <__fixdfsi+0x62>
    2074:	40a00533          	neg	a0,a0
    2078:	8082                	ret
    207a:	41300513          	li	a0,1043
    207e:	8d19                	sub	a0,a0,a4
    2080:	00a7d533          	srl	a0,a5,a0
    2084:	b7fd                	j	2072 <__fixdfsi+0x4c>
    2086:	4501                	li	a0,0
    2088:	8082                	ret

0000208a <__fixunsdfsi>:
    208a:	0145d713          	srli	a4,a1,0x14
    208e:	00100837          	lui	a6,0x100
    2092:	fff80793          	addi	a5,a6,-1 # fffff <__min_heap_size+0xeffff>
    2096:	7ff77713          	andi	a4,a4,2047
    209a:	3fe00613          	li	a2,1022
    209e:	8fed                	and	a5,a5,a1
    20a0:	86aa                	mv	a3,a0
    20a2:	81fd                	srli	a1,a1,0x1f
    20a4:	04e65163          	bge	a2,a4,20e6 <__fixunsdfsi+0x5c>
    20a8:	41f00613          	li	a2,1055
    20ac:	8e0d                	sub	a2,a2,a1
    20ae:	fff58513          	addi	a0,a1,-1
    20b2:	02c75b63          	bge	a4,a2,20e8 <__fixunsdfsi+0x5e>
    20b6:	4501                	li	a0,0
    20b8:	e985                	bnez	a1,20e8 <__fixunsdfsi+0x5e>
    20ba:	43300513          	li	a0,1075
    20be:	8d19                	sub	a0,a0,a4
    20c0:	467d                	li	a2,31
    20c2:	0107e7b3          	or	a5,a5,a6
    20c6:	00a64a63          	blt	a2,a0,20da <__fixunsdfsi+0x50>
    20ca:	bed70713          	addi	a4,a4,-1043
    20ce:	00e797b3          	sll	a5,a5,a4
    20d2:	00a6d533          	srl	a0,a3,a0
    20d6:	8d5d                	or	a0,a0,a5
    20d8:	8082                	ret
    20da:	41300513          	li	a0,1043
    20de:	8d19                	sub	a0,a0,a4
    20e0:	00a7d533          	srl	a0,a5,a0
    20e4:	8082                	ret
    20e6:	4501                	li	a0,0
    20e8:	8082                	ret

000020ea <__floatsidf>:
    20ea:	1141                	addi	sp,sp,-16
    20ec:	c606                	sw	ra,12(sp)
    20ee:	c422                	sw	s0,8(sp)
    20f0:	c226                	sw	s1,4(sp)
    20f2:	cd39                	beqz	a0,2150 <__floatsidf+0x66>
    20f4:	41f55793          	srai	a5,a0,0x1f
    20f8:	00a7c433          	xor	s0,a5,a0
    20fc:	8c1d                	sub	s0,s0,a5
    20fe:	01f55493          	srli	s1,a0,0x1f
    2102:	8522                	mv	a0,s0
    2104:	00000097          	auipc	ra,0x0
    2108:	0a6080e7          	jalr	166(ra) # 21aa <__clzsi2>
    210c:	41e00713          	li	a4,1054
    2110:	47a9                	li	a5,10
    2112:	8f09                	sub	a4,a4,a0
    2114:	02a7c863          	blt	a5,a0,2144 <__floatsidf+0x5a>
    2118:	47ad                	li	a5,11
    211a:	8f89                	sub	a5,a5,a0
    211c:	0555                	addi	a0,a0,21
    211e:	00f457b3          	srl	a5,s0,a5
    2122:	00a41433          	sll	s0,s0,a0
    2126:	8526                	mv	a0,s1
    2128:	07b2                	slli	a5,a5,0xc
    212a:	0752                	slli	a4,a4,0x14
    212c:	83b1                	srli	a5,a5,0xc
    212e:	057e                	slli	a0,a0,0x1f
    2130:	8fd9                	or	a5,a5,a4
    2132:	40b2                	lw	ra,12(sp)
    2134:	00a7e733          	or	a4,a5,a0
    2138:	8522                	mv	a0,s0
    213a:	4422                	lw	s0,8(sp)
    213c:	4492                	lw	s1,4(sp)
    213e:	85ba                	mv	a1,a4
    2140:	0141                	addi	sp,sp,16
    2142:	8082                	ret
    2144:	1555                	addi	a0,a0,-11
    2146:	00a417b3          	sll	a5,s0,a0
    214a:	8526                	mv	a0,s1
    214c:	4401                	li	s0,0
    214e:	bfe9                	j	2128 <__floatsidf+0x3e>
    2150:	4701                	li	a4,0
    2152:	4781                	li	a5,0
    2154:	bfe5                	j	214c <__floatsidf+0x62>

00002156 <__floatunsidf>:
    2156:	1141                	addi	sp,sp,-16
    2158:	c422                	sw	s0,8(sp)
    215a:	c606                	sw	ra,12(sp)
    215c:	842a                	mv	s0,a0
    215e:	c139                	beqz	a0,21a4 <__floatunsidf+0x4e>
    2160:	00000097          	auipc	ra,0x0
    2164:	04a080e7          	jalr	74(ra) # 21aa <__clzsi2>
    2168:	41e00713          	li	a4,1054
    216c:	47a9                	li	a5,10
    216e:	8f09                	sub	a4,a4,a0
    2170:	02a7c463          	blt	a5,a0,2198 <__floatunsidf+0x42>
    2174:	47ad                	li	a5,11
    2176:	8f89                	sub	a5,a5,a0
    2178:	0555                	addi	a0,a0,21
    217a:	00f457b3          	srl	a5,s0,a5
    217e:	00a41433          	sll	s0,s0,a0
    2182:	40b2                	lw	ra,12(sp)
    2184:	8522                	mv	a0,s0
    2186:	07b2                	slli	a5,a5,0xc
    2188:	4422                	lw	s0,8(sp)
    218a:	0752                	slli	a4,a4,0x14
    218c:	83b1                	srli	a5,a5,0xc
    218e:	00f766b3          	or	a3,a4,a5
    2192:	85b6                	mv	a1,a3
    2194:	0141                	addi	sp,sp,16
    2196:	8082                	ret
    2198:	ff550793          	addi	a5,a0,-11 # 7ffffff5 <__heap_end+0x5ffdfff5>
    219c:	00f417b3          	sll	a5,s0,a5
    21a0:	4401                	li	s0,0
    21a2:	b7c5                	j	2182 <__floatunsidf+0x2c>
    21a4:	4781                	li	a5,0
    21a6:	4701                	li	a4,0
    21a8:	bfe9                	j	2182 <__floatunsidf+0x2c>

000021aa <__clzsi2>:
    21aa:	67c1                	lui	a5,0x10
    21ac:	02f57663          	bgeu	a0,a5,21d8 <__clzsi2+0x2e>
    21b0:	0ff00793          	li	a5,255
    21b4:	00a7b7b3          	sltu	a5,a5,a0
    21b8:	078e                	slli	a5,a5,0x3
    21ba:	02000713          	li	a4,32
    21be:	8f1d                	sub	a4,a4,a5
    21c0:	00f55533          	srl	a0,a0,a5
    21c4:	00006797          	auipc	a5,0x6
    21c8:	27078793          	addi	a5,a5,624 # 8434 <__clz_tab>
    21cc:	953e                	add	a0,a0,a5
    21ce:	00054503          	lbu	a0,0(a0)
    21d2:	40a70533          	sub	a0,a4,a0
    21d6:	8082                	ret
    21d8:	01000737          	lui	a4,0x1000
    21dc:	47c1                	li	a5,16
    21de:	fce56ee3          	bltu	a0,a4,21ba <__clzsi2+0x10>
    21e2:	47e1                	li	a5,24
    21e4:	bfd9                	j	21ba <__clzsi2+0x10>
	...

000021e8 <memset>:
    21e8:	433d                	li	t1,15
    21ea:	872a                	mv	a4,a0
    21ec:	02c37563          	bgeu	t1,a2,2216 <memset+0x2e>
    21f0:	00f77793          	andi	a5,a4,15
    21f4:	e3c9                	bnez	a5,2276 <memset+0x8e>
    21f6:	06059763          	bnez	a1,2264 <memset+0x7c>
    21fa:	ff067693          	andi	a3,a2,-16
    21fe:	8a3d                	andi	a2,a2,15
    2200:	96ba                	add	a3,a3,a4
    2202:	c30c                	sw	a1,0(a4)
    2204:	c34c                	sw	a1,4(a4)
    2206:	c70c                	sw	a1,8(a4)
    2208:	c74c                	sw	a1,12(a4)
    220a:	0741                	addi	a4,a4,16
    220c:	fed76be3          	bltu	a4,a3,2202 <memset+0x1a>
    2210:	00061363          	bnez	a2,2216 <memset+0x2e>
    2214:	8082                	ret
    2216:	40c306b3          	sub	a3,t1,a2
    221a:	068a                	slli	a3,a3,0x2
    221c:	00000297          	auipc	t0,0x0
    2220:	9696                	add	a3,a3,t0
    2222:	00a68067          	jr	10(a3)
    2226:	00b70723          	sb	a1,14(a4) # 100000e <__min_heap_size+0xff000e>
    222a:	00b706a3          	sb	a1,13(a4)
    222e:	00b70623          	sb	a1,12(a4)
    2232:	00b705a3          	sb	a1,11(a4)
    2236:	00b70523          	sb	a1,10(a4)
    223a:	00b704a3          	sb	a1,9(a4)
    223e:	00b70423          	sb	a1,8(a4)
    2242:	00b703a3          	sb	a1,7(a4)
    2246:	00b70323          	sb	a1,6(a4)
    224a:	00b702a3          	sb	a1,5(a4)
    224e:	00b70223          	sb	a1,4(a4)
    2252:	00b701a3          	sb	a1,3(a4)
    2256:	00b70123          	sb	a1,2(a4)
    225a:	00b700a3          	sb	a1,1(a4)
    225e:	00b70023          	sb	a1,0(a4)
    2262:	8082                	ret
    2264:	0ff5f593          	andi	a1,a1,255
    2268:	00859693          	slli	a3,a1,0x8
    226c:	8dd5                	or	a1,a1,a3
    226e:	01059693          	slli	a3,a1,0x10
    2272:	8dd5                	or	a1,a1,a3
    2274:	b759                	j	21fa <memset+0x12>
    2276:	00279693          	slli	a3,a5,0x2
    227a:	00000297          	auipc	t0,0x0
    227e:	9696                	add	a3,a3,t0
    2280:	8286                	mv	t0,ra
    2282:	fa8680e7          	jalr	-88(a3)
    2286:	8096                	mv	ra,t0
    2288:	17c1                	addi	a5,a5,-16
    228a:	8f1d                	sub	a4,a4,a5
    228c:	963e                	add	a2,a2,a5
    228e:	f8c374e3          	bgeu	t1,a2,2216 <memset+0x2e>
    2292:	b795                	j	21f6 <memset+0xe>
	...

00002296 <board_init>:

extern int clock_timer_init(void);
extern int clock_timer_start(void);

void board_init(void)
{
    2296:	1101                	addi	sp,sp,-32
    2298:	ce06                	sw	ra,28(sp)
    229a:	cc22                	sw	s0,24(sp)
    229c:	1000                	addi	s0,sp,32
    int32_t ret = 0;
    229e:	fe042623          	sw	zero,-20(s0)
    /* init the console*/
    clock_timer_init();
    22a2:	00002097          	auipc	ra,0x2
    22a6:	ba6080e7          	jalr	-1114(ra) # 3e48 <clock_timer_init>
    clock_timer_start();
    22aa:	00002097          	auipc	ra,0x2
    22ae:	cae080e7          	jalr	-850(ra) # 3f58 <clock_timer_start>

    console_handle = csi_usart_initialize(CONSOLE_IDX, NULL);
    22b2:	4581                	li	a1,0
    22b4:	4501                	li	a0,0
    22b6:	00001097          	auipc	ra,0x1
    22ba:	a52080e7          	jalr	-1454(ra) # 2d08 <csi_usart_initialize>
    22be:	872a                	mv	a4,a0
    22c0:	2000a7b7          	lui	a5,0x2000a
    22c4:	60e7a023          	sw	a4,1536(a5) # 2000a600 <console_handle>
    /* config the UART */
    ret = csi_usart_config(console_handle, 115200, USART_MODE_ASYNCHRONOUS, USART_PARITY_NONE, USART_STOP_BITS_1, USART_DATA_BITS_8);
    22c8:	2000a7b7          	lui	a5,0x2000a
    22cc:	6007a503          	lw	a0,1536(a5) # 2000a600 <console_handle>
    22d0:	478d                	li	a5,3
    22d2:	4701                	li	a4,0
    22d4:	4681                	li	a3,0
    22d6:	4601                	li	a2,0
    22d8:	65f1                	lui	a1,0x1c
    22da:	20058593          	addi	a1,a1,512 # 1c200 <__min_heap_size+0xc200>
    22de:	00001097          	auipc	ra,0x1
    22e2:	afe080e7          	jalr	-1282(ra) # 2ddc <csi_usart_config>
    22e6:	fea42623          	sw	a0,-20(s0)

    if (ret < 0) {
        return;
    }
}
    22ea:	40f2                	lw	ra,28(sp)
    22ec:	4462                	lw	s0,24(sp)
    22ee:	6105                	addi	sp,sp,32
    22f0:	8082                	ret

000022f2 <csi_vic_enable_irq>:
  \brief   Enable External Interrupt
  \details Enable a device-specific interrupt in the VIC interrupt controller.
  \param [in]      IRQn  External interrupt number. Value cannot be negative.
 */
__STATIC_INLINE void csi_vic_enable_irq(int32_t IRQn)
{
    22f2:	1101                	addi	sp,sp,-32
    22f4:	ce22                	sw	s0,28(sp)
    22f6:	1000                	addi	s0,sp,32
    22f8:	fea42623          	sw	a0,-20(s0)
    CLIC->CLICINT[IRQn].IE |= CLIC_INTIE_IE_Msk;
    22fc:	e0800737          	lui	a4,0xe0800
    2300:	fec42783          	lw	a5,-20(s0)
    2304:	40078793          	addi	a5,a5,1024
    2308:	078a                	slli	a5,a5,0x2
    230a:	97ba                	add	a5,a5,a4
    230c:	0017c783          	lbu	a5,1(a5)
    2310:	0ff7f793          	andi	a5,a5,255
    2314:	e08006b7          	lui	a3,0xe0800
    2318:	0017e793          	ori	a5,a5,1
    231c:	0ff7f713          	andi	a4,a5,255
    2320:	fec42783          	lw	a5,-20(s0)
    2324:	40078793          	addi	a5,a5,1024
    2328:	078a                	slli	a5,a5,0x2
    232a:	97b6                	add	a5,a5,a3
    232c:	00e780a3          	sb	a4,1(a5)
}
    2330:	0001                	nop
    2332:	4472                	lw	s0,28(sp)
    2334:	6105                	addi	sp,sp,32
    2336:	8082                	ret

00002338 <drv_irq_enable>:
  \brief       enable irq.
  \param[in]   irq_num Number of IRQ.
  \return      None.
*/
void drv_irq_enable(uint32_t irq_num)
{
    2338:	1101                	addi	sp,sp,-32
    233a:	ce06                	sw	ra,28(sp)
    233c:	cc22                	sw	s0,24(sp)
    233e:	1000                	addi	s0,sp,32
    2340:	fea42623          	sw	a0,-20(s0)
    if (NMI_EXPn != irq_num) {
    2344:	fec42703          	lw	a4,-20(s0)
    2348:	57f9                	li	a5,-2
    234a:	00f70963          	beq	a4,a5,235c <drv_irq_enable+0x24>
    #ifdef CONFIG_SYSTEM_SECURE
        csi_vic_enable_sirq(irq_num);
    #else
        csi_vic_enable_irq(irq_num);
    234e:	fec42783          	lw	a5,-20(s0)
    2352:	853e                	mv	a0,a5
    2354:	00000097          	auipc	ra,0x0
    2358:	f9e080e7          	jalr	-98(ra) # 22f2 <csi_vic_enable_irq>
    #endif
    }
}
    235c:	0001                	nop
    235e:	40f2                	lw	ra,28(sp)
    2360:	4462                	lw	s0,24(sp)
    2362:	6105                	addi	sp,sp,32
    2364:	8082                	ret

00002366 <drv_irq_register>:
  \param[in]   irq_num Number of IRQ.
  \param[in]   irq_handler IRQ Handler.
  \return      None.
*/
void drv_irq_register(uint32_t irq_num, void *irq_handler)
{
    2366:	1101                	addi	sp,sp,-32
    2368:	ce22                	sw	s0,28(sp)
    236a:	1000                	addi	s0,sp,32
    236c:	fea42623          	sw	a0,-20(s0)
    2370:	feb42423          	sw	a1,-24(s0)
    if (NMI_EXPn != irq_num) {
    2374:	fec42703          	lw	a4,-20(s0)
    2378:	57f9                	li	a5,-2
    237a:	00f70d63          	beq	a4,a5,2394 <drv_irq_register+0x2e>
        g_irqvector[irq_num] = irq_handler;
    237e:	fe842683          	lw	a3,-24(s0)
    2382:	2000a7b7          	lui	a5,0x2000a
    2386:	52478793          	addi	a5,a5,1316 # 2000a524 <g_irqvector>
    238a:	fec42703          	lw	a4,-20(s0)
    238e:	44e7d68b          	srw	a3,a5,a4,2
    } else {
        g_nmivector = irq_handler;
    }
}
    2392:	a039                	j	23a0 <drv_irq_register+0x3a>
        g_nmivector = irq_handler;
    2394:	fe842703          	lw	a4,-24(s0)
    2398:	2000a7b7          	lui	a5,0x2000a
    239c:	5ee7a223          	sw	a4,1508(a5) # 2000a5e4 <g_nmivector>
}
    23a0:	0001                	nop
    23a2:	4472                	lw	s0,28(sp)
    23a4:	6105                	addi	sp,sp,32
    23a6:	8082                	ret

000023a8 <csi_usart_config_baudrate>:
  \brief       set the bautrate of usart.
  \param[in]   addr  usart base to operate.
  \return      error code
*/
int32_t csi_usart_config_baudrate(usart_handle_t handle, uint32_t baud)
{
    23a8:	7179                	addi	sp,sp,-48
    23aa:	d606                	sw	ra,44(sp)
    23ac:	d422                	sw	s0,40(sp)
    23ae:	1800                	addi	s0,sp,48
    23b0:	fca42e23          	sw	a0,-36(s0)
    23b4:	fcb42c23          	sw	a1,-40(s0)
    USART_NULL_PARAM_CHK(handle);
    23b8:	fdc42783          	lw	a5,-36(s0)
    23bc:	e791                	bnez	a5,23c8 <csi_usart_config_baudrate+0x20>
    23be:	810207b7          	lui	a5,0x81020
    23c2:	08478793          	addi	a5,a5,132 # 81020084 <__heap_end+0x61000084>
    23c6:	a8cd                	j	24b8 <csi_usart_config_baudrate+0x110>
    ck_usart_priv_t *usart_priv = handle;
    23c8:	fdc42783          	lw	a5,-36(s0)
    23cc:	fef42223          	sw	a5,-28(s0)
    ck_usart_reg_t *addr = (ck_usart_reg_t *)(usart_priv->base);
    23d0:	fe442783          	lw	a5,-28(s0)
    23d4:	439c                	lw	a5,0(a5)
    23d6:	fef42023          	sw	a5,-32(s0)


    WAIT_USART_IDLE(addr);
    23da:	fe042623          	sw	zero,-20(s0)
    23de:	a031                	j	23ea <csi_usart_config_baudrate+0x42>
    23e0:	fec42783          	lw	a5,-20(s0)
    23e4:	0785                	addi	a5,a5,1
    23e6:	fef42623          	sw	a5,-20(s0)
    23ea:	fe042783          	lw	a5,-32(s0)
    23ee:	5ffc                	lw	a5,124(a5)
    23f0:	8b85                	andi	a5,a5,1
    23f2:	cb89                	beqz	a5,2404 <csi_usart_config_baudrate+0x5c>
    23f4:	fec42703          	lw	a4,-20(s0)
    23f8:	000f47b7          	lui	a5,0xf4
    23fc:	23f78793          	addi	a5,a5,575 # f423f <__min_heap_size+0xe423f>
    2400:	fee7d0e3          	bge	a5,a4,23e0 <csi_usart_config_baudrate+0x38>
    2404:	fec42703          	lw	a4,-20(s0)
    2408:	000f47b7          	lui	a5,0xf4
    240c:	23f78793          	addi	a5,a5,575 # f423f <__min_heap_size+0xe423f>
    2410:	00e7d763          	bge	a5,a4,241e <csi_usart_config_baudrate+0x76>
    2414:	810207b7          	lui	a5,0x81020
    2418:	08278793          	addi	a5,a5,130 # 81020082 <__heap_end+0x61000082>
    241c:	a871                	j	24b8 <csi_usart_config_baudrate+0x110>

    /* baudrate=(seriak clock freq)/(16*divisor); algorithm :rounding*/
    uint32_t divisor = ((drv_get_usart_freq(usart_priv->idx)  * 10) / baud) >> 4;
    241e:	fe442783          	lw	a5,-28(s0)
    2422:	5bdc                	lw	a5,52(a5)
    2424:	853e                	mv	a0,a5
    2426:	00001097          	auipc	ra,0x1
    242a:	40c080e7          	jalr	1036(ra) # 3832 <drv_get_usart_freq>
    242e:	872a                	mv	a4,a0
    2430:	87ba                	mv	a5,a4
    2432:	078a                	slli	a5,a5,0x2
    2434:	97ba                	add	a5,a5,a4
    2436:	0786                	slli	a5,a5,0x1
    2438:	873e                	mv	a4,a5
    243a:	fd842783          	lw	a5,-40(s0)
    243e:	02f757b3          	divu	a5,a4,a5
    2442:	8391                	srli	a5,a5,0x4
    2444:	fef42423          	sw	a5,-24(s0)

    if ((divisor % 10) >= 5) {
    2448:	fe842703          	lw	a4,-24(s0)
    244c:	47a9                	li	a5,10
    244e:	02f77733          	remu	a4,a4,a5
    2452:	4791                	li	a5,4
    2454:	00e7fb63          	bgeu	a5,a4,246a <csi_usart_config_baudrate+0xc2>
        divisor = (divisor / 10) + 1;
    2458:	fe842703          	lw	a4,-24(s0)
    245c:	47a9                	li	a5,10
    245e:	02f757b3          	divu	a5,a4,a5
    2462:	0785                	addi	a5,a5,1
    2464:	fef42423          	sw	a5,-24(s0)
    2468:	a801                	j	2478 <csi_usart_config_baudrate+0xd0>
    } else {
        divisor = divisor / 10;
    246a:	fe842703          	lw	a4,-24(s0)
    246e:	47a9                	li	a5,10
    2470:	02f757b3          	divu	a5,a4,a5
    2474:	fef42423          	sw	a5,-24(s0)
    }

    addr->LCR |= LCR_SET_DLAB;
    2478:	fe042783          	lw	a5,-32(s0)
    247c:	47dc                	lw	a5,12(a5)
    247e:	0807e713          	ori	a4,a5,128
    2482:	fe042783          	lw	a5,-32(s0)
    2486:	c7d8                	sw	a4,12(a5)
    /* DLL and DLH is lower 8-bits and higher 8-bits of divisor.*/
    addr->DLL = divisor & 0xff;
    2488:	fe842783          	lw	a5,-24(s0)
    248c:	0ff7f713          	andi	a4,a5,255
    2490:	fe042783          	lw	a5,-32(s0)
    2494:	c398                	sw	a4,0(a5)
    addr->DLH = (divisor >> 8) & 0xff;
    2496:	fe842783          	lw	a5,-24(s0)
    249a:	83a1                	srli	a5,a5,0x8
    249c:	0ff7f713          	andi	a4,a5,255
    24a0:	fe042783          	lw	a5,-32(s0)
    24a4:	c3d8                	sw	a4,4(a5)
    /*
     * The DLAB must be cleared after the baudrate is setted
     * to access other registers.
     */
    addr->LCR &= (~LCR_SET_DLAB);
    24a6:	fe042783          	lw	a5,-32(s0)
    24aa:	47dc                	lw	a5,12(a5)
    24ac:	f7f7f713          	andi	a4,a5,-129
    24b0:	fe042783          	lw	a5,-32(s0)
    24b4:	c7d8                	sw	a4,12(a5)

    return 0;
    24b6:	4781                	li	a5,0
}
    24b8:	853e                	mv	a0,a5
    24ba:	50b2                	lw	ra,44(sp)
    24bc:	5422                	lw	s0,40(sp)
    24be:	6145                	addi	sp,sp,48
    24c0:	8082                	ret

000024c2 <csi_usart_config_mode>:
  \param[in]   handle  usart handle to operate.
  \param[in]   mode    \ref usart_mode_e
  \return      error code
*/
int32_t csi_usart_config_mode(usart_handle_t handle, usart_mode_e mode)
{
    24c2:	1101                	addi	sp,sp,-32
    24c4:	ce22                	sw	s0,28(sp)
    24c6:	1000                	addi	s0,sp,32
    24c8:	fea42623          	sw	a0,-20(s0)
    24cc:	feb42423          	sw	a1,-24(s0)
    USART_NULL_PARAM_CHK(handle);
    24d0:	fec42783          	lw	a5,-20(s0)
    24d4:	e791                	bnez	a5,24e0 <csi_usart_config_mode+0x1e>
    24d6:	810207b7          	lui	a5,0x81020
    24da:	08478793          	addi	a5,a5,132 # 81020084 <__heap_end+0x61000084>
    24de:	a811                	j	24f2 <csi_usart_config_mode+0x30>

    if (mode == USART_MODE_ASYNCHRONOUS) {
    24e0:	fe842783          	lw	a5,-24(s0)
    24e4:	e399                	bnez	a5,24ea <csi_usart_config_mode+0x28>
        return 0;
    24e6:	4781                	li	a5,0
    24e8:	a029                	j	24f2 <csi_usart_config_mode+0x30>
    }

    return ERR_USART(USART_ERROR_MODE);
    24ea:	810207b7          	lui	a5,0x81020
    24ee:	08678793          	addi	a5,a5,134 # 81020086 <__heap_end+0x61000086>
}
    24f2:	853e                	mv	a0,a5
    24f4:	4472                	lw	s0,28(sp)
    24f6:	6105                	addi	sp,sp,32
    24f8:	8082                	ret

000024fa <csi_usart_config_parity>:
  \param[in]   handle  usart handle to operate.
  \param[in]   parity    \ref usart_parity_e
  \return      error code
*/
int32_t csi_usart_config_parity(usart_handle_t handle, usart_parity_e parity)
{
    24fa:	7179                	addi	sp,sp,-48
    24fc:	d622                	sw	s0,44(sp)
    24fe:	1800                	addi	s0,sp,48
    2500:	fca42e23          	sw	a0,-36(s0)
    2504:	fcb42c23          	sw	a1,-40(s0)
    USART_NULL_PARAM_CHK(handle);
    2508:	fdc42783          	lw	a5,-36(s0)
    250c:	e791                	bnez	a5,2518 <csi_usart_config_parity+0x1e>
    250e:	810207b7          	lui	a5,0x81020
    2512:	08478793          	addi	a5,a5,132 # 81020084 <__heap_end+0x61000084>
    2516:	a0c5                	j	25f6 <csi_usart_config_parity+0xfc>
    ck_usart_priv_t *usart_priv = handle;
    2518:	fdc42783          	lw	a5,-36(s0)
    251c:	fef42423          	sw	a5,-24(s0)
    ck_usart_reg_t *addr = (ck_usart_reg_t *)(usart_priv->base);
    2520:	fe842783          	lw	a5,-24(s0)
    2524:	439c                	lw	a5,0(a5)
    2526:	fef42223          	sw	a5,-28(s0)

    WAIT_USART_IDLE(addr);
    252a:	fe042623          	sw	zero,-20(s0)
    252e:	a031                	j	253a <csi_usart_config_parity+0x40>
    2530:	fec42783          	lw	a5,-20(s0)
    2534:	0785                	addi	a5,a5,1
    2536:	fef42623          	sw	a5,-20(s0)
    253a:	fe442783          	lw	a5,-28(s0)
    253e:	5ffc                	lw	a5,124(a5)
    2540:	8b85                	andi	a5,a5,1
    2542:	cb89                	beqz	a5,2554 <csi_usart_config_parity+0x5a>
    2544:	fec42703          	lw	a4,-20(s0)
    2548:	000f47b7          	lui	a5,0xf4
    254c:	23f78793          	addi	a5,a5,575 # f423f <__min_heap_size+0xe423f>
    2550:	fee7d0e3          	bge	a5,a4,2530 <csi_usart_config_parity+0x36>
    2554:	fec42703          	lw	a4,-20(s0)
    2558:	000f47b7          	lui	a5,0xf4
    255c:	23f78793          	addi	a5,a5,575 # f423f <__min_heap_size+0xe423f>
    2560:	00e7d763          	bge	a5,a4,256e <csi_usart_config_parity+0x74>
    2564:	810207b7          	lui	a5,0x81020
    2568:	08278793          	addi	a5,a5,130 # 81020082 <__heap_end+0x61000082>
    256c:	a069                	j	25f6 <csi_usart_config_parity+0xfc>

    switch (parity) {
    256e:	fd842703          	lw	a4,-40(s0)
    2572:	4789                	li	a5,2
    2574:	02f70963          	beq	a4,a5,25a6 <csi_usart_config_parity+0xac>
    2578:	fd842703          	lw	a4,-40(s0)
    257c:	4789                	li	a5,2
    257e:	06e7e663          	bltu	a5,a4,25ea <csi_usart_config_parity+0xf0>
    2582:	fd842783          	lw	a5,-40(s0)
    2586:	c799                	beqz	a5,2594 <csi_usart_config_parity+0x9a>
    2588:	fd842703          	lw	a4,-40(s0)
    258c:	4785                	li	a5,1
    258e:	02f70d63          	beq	a4,a5,25c8 <csi_usart_config_parity+0xce>
    2592:	a8a1                	j	25ea <csi_usart_config_parity+0xf0>
        case USART_PARITY_NONE:
            /*CLear the PEN bit(LCR[3]) to disable parity.*/
            addr->LCR &= (~LCR_PARITY_ENABLE);
    2594:	fe442783          	lw	a5,-28(s0)
    2598:	47dc                	lw	a5,12(a5)
    259a:	ff77f713          	andi	a4,a5,-9
    259e:	fe442783          	lw	a5,-28(s0)
    25a2:	c7d8                	sw	a4,12(a5)
            break;
    25a4:	a881                	j	25f4 <csi_usart_config_parity+0xfa>

        case USART_PARITY_ODD:
            /* Set PEN and clear EPS(LCR[4]) to set the ODD parity. */
            addr->LCR |= LCR_PARITY_ENABLE;
    25a6:	fe442783          	lw	a5,-28(s0)
    25aa:	47dc                	lw	a5,12(a5)
    25ac:	0087e713          	ori	a4,a5,8
    25b0:	fe442783          	lw	a5,-28(s0)
    25b4:	c7d8                	sw	a4,12(a5)
            addr->LCR &= LCR_PARITY_ODD;
    25b6:	fe442783          	lw	a5,-28(s0)
    25ba:	47dc                	lw	a5,12(a5)
    25bc:	0ef7f713          	andi	a4,a5,239
    25c0:	fe442783          	lw	a5,-28(s0)
    25c4:	c7d8                	sw	a4,12(a5)
            break;
    25c6:	a03d                	j	25f4 <csi_usart_config_parity+0xfa>

        case USART_PARITY_EVEN:
            /* Set PEN and EPS(LCR[4]) to set the EVEN parity.*/
            addr->LCR |= LCR_PARITY_ENABLE;
    25c8:	fe442783          	lw	a5,-28(s0)
    25cc:	47dc                	lw	a5,12(a5)
    25ce:	0087e713          	ori	a4,a5,8
    25d2:	fe442783          	lw	a5,-28(s0)
    25d6:	c7d8                	sw	a4,12(a5)
            addr->LCR |= LCR_PARITY_EVEN;
    25d8:	fe442783          	lw	a5,-28(s0)
    25dc:	47dc                	lw	a5,12(a5)
    25de:	0107e713          	ori	a4,a5,16
    25e2:	fe442783          	lw	a5,-28(s0)
    25e6:	c7d8                	sw	a4,12(a5)
            break;
    25e8:	a031                	j	25f4 <csi_usart_config_parity+0xfa>

        default:
            return ERR_USART(USART_ERROR_PARITY);
    25ea:	810207b7          	lui	a5,0x81020
    25ee:	08978793          	addi	a5,a5,137 # 81020089 <__heap_end+0x61000089>
    25f2:	a011                	j	25f6 <csi_usart_config_parity+0xfc>
    }

    return 0;
    25f4:	4781                	li	a5,0
}
    25f6:	853e                	mv	a0,a5
    25f8:	5432                	lw	s0,44(sp)
    25fa:	6145                	addi	sp,sp,48
    25fc:	8082                	ret

000025fe <csi_usart_config_stopbits>:
  \param[in]   handle  usart handle to operate.
  \param[in]   stopbits  \ref usart_stop_bits_e
  \return      error code
*/
int32_t csi_usart_config_stopbits(usart_handle_t handle, usart_stop_bits_e stopbit)
{
    25fe:	7179                	addi	sp,sp,-48
    2600:	d622                	sw	s0,44(sp)
    2602:	1800                	addi	s0,sp,48
    2604:	fca42e23          	sw	a0,-36(s0)
    2608:	fcb42c23          	sw	a1,-40(s0)
    USART_NULL_PARAM_CHK(handle);
    260c:	fdc42783          	lw	a5,-36(s0)
    2610:	e791                	bnez	a5,261c <csi_usart_config_stopbits+0x1e>
    2612:	810207b7          	lui	a5,0x81020
    2616:	08478793          	addi	a5,a5,132 # 81020084 <__heap_end+0x61000084>
    261a:	a869                	j	26b4 <csi_usart_config_stopbits+0xb6>
    ck_usart_priv_t *usart_priv = handle;
    261c:	fdc42783          	lw	a5,-36(s0)
    2620:	fef42423          	sw	a5,-24(s0)
    ck_usart_reg_t *addr = (ck_usart_reg_t *)(usart_priv->base);
    2624:	fe842783          	lw	a5,-24(s0)
    2628:	439c                	lw	a5,0(a5)
    262a:	fef42223          	sw	a5,-28(s0)

    WAIT_USART_IDLE(addr);
    262e:	fe042623          	sw	zero,-20(s0)
    2632:	a031                	j	263e <csi_usart_config_stopbits+0x40>
    2634:	fec42783          	lw	a5,-20(s0)
    2638:	0785                	addi	a5,a5,1
    263a:	fef42623          	sw	a5,-20(s0)
    263e:	fe442783          	lw	a5,-28(s0)
    2642:	5ffc                	lw	a5,124(a5)
    2644:	8b85                	andi	a5,a5,1
    2646:	cb89                	beqz	a5,2658 <csi_usart_config_stopbits+0x5a>
    2648:	fec42703          	lw	a4,-20(s0)
    264c:	000f47b7          	lui	a5,0xf4
    2650:	23f78793          	addi	a5,a5,575 # f423f <__min_heap_size+0xe423f>
    2654:	fee7d0e3          	bge	a5,a4,2634 <csi_usart_config_stopbits+0x36>
    2658:	fec42703          	lw	a4,-20(s0)
    265c:	000f47b7          	lui	a5,0xf4
    2660:	23f78793          	addi	a5,a5,575 # f423f <__min_heap_size+0xe423f>
    2664:	00e7d763          	bge	a5,a4,2672 <csi_usart_config_stopbits+0x74>
    2668:	810207b7          	lui	a5,0x81020
    266c:	08278793          	addi	a5,a5,130 # 81020082 <__heap_end+0x61000082>
    2670:	a091                	j	26b4 <csi_usart_config_stopbits+0xb6>

    switch (stopbit) {
    2672:	fd842783          	lw	a5,-40(s0)
    2676:	c799                	beqz	a5,2684 <csi_usart_config_stopbits+0x86>
    2678:	fd842703          	lw	a4,-40(s0)
    267c:	4785                	li	a5,1
    267e:	00f70c63          	beq	a4,a5,2696 <csi_usart_config_stopbits+0x98>
    2682:	a01d                	j	26a8 <csi_usart_config_stopbits+0xaa>
        case USART_STOP_BITS_1:
            /* Clear the STOP bit to set 1 stop bit*/
            addr->LCR &= LCR_STOP_BIT1;
    2684:	fe442783          	lw	a5,-28(s0)
    2688:	47dc                	lw	a5,12(a5)
    268a:	0fb7f713          	andi	a4,a5,251
    268e:	fe442783          	lw	a5,-28(s0)
    2692:	c7d8                	sw	a4,12(a5)
            break;
    2694:	a839                	j	26b2 <csi_usart_config_stopbits+0xb4>
        case USART_STOP_BITS_2:
            /*
            * If the STOP bit is set "1",we'd gotten 1.5 stop
            * bits when DLS(LCR[1:0]) is zero, else 2 stop bits.
            */
            addr->LCR |= LCR_STOP_BIT2;
    2696:	fe442783          	lw	a5,-28(s0)
    269a:	47dc                	lw	a5,12(a5)
    269c:	0047e713          	ori	a4,a5,4
    26a0:	fe442783          	lw	a5,-28(s0)
    26a4:	c7d8                	sw	a4,12(a5)
            break;
    26a6:	a031                	j	26b2 <csi_usart_config_stopbits+0xb4>

        default:
            return ERR_USART(USART_ERROR_STOP_BITS);
    26a8:	810207b7          	lui	a5,0x81020
    26ac:	08a78793          	addi	a5,a5,138 # 8102008a <__heap_end+0x6100008a>
    26b0:	a011                	j	26b4 <csi_usart_config_stopbits+0xb6>
    }

    return 0;
    26b2:	4781                	li	a5,0
}
    26b4:	853e                	mv	a0,a5
    26b6:	5432                	lw	s0,44(sp)
    26b8:	6145                	addi	sp,sp,48
    26ba:	8082                	ret

000026bc <csi_usart_config_databits>:
  \param[in]   handle  usart handle to operate.
  \param[in]   databits      \ref usart_data_bits_e
  \return      error code
*/
int32_t csi_usart_config_databits(usart_handle_t handle, usart_data_bits_e databits)
{
    26bc:	7179                	addi	sp,sp,-48
    26be:	d622                	sw	s0,44(sp)
    26c0:	1800                	addi	s0,sp,48
    26c2:	fca42e23          	sw	a0,-36(s0)
    26c6:	fcb42c23          	sw	a1,-40(s0)
    USART_NULL_PARAM_CHK(handle);
    26ca:	fdc42783          	lw	a5,-36(s0)
    26ce:	e791                	bnez	a5,26da <csi_usart_config_databits+0x1e>
    26d0:	810207b7          	lui	a5,0x81020
    26d4:	08478793          	addi	a5,a5,132 # 81020084 <__heap_end+0x61000084>
    26d8:	a219                	j	27de <csi_usart_config_databits+0x122>
    ck_usart_priv_t *usart_priv = handle;
    26da:	fdc42783          	lw	a5,-36(s0)
    26de:	fef42423          	sw	a5,-24(s0)
    ck_usart_reg_t *addr = (ck_usart_reg_t *)(usart_priv->base);
    26e2:	fe842783          	lw	a5,-24(s0)
    26e6:	439c                	lw	a5,0(a5)
    26e8:	fef42223          	sw	a5,-28(s0)

    WAIT_USART_IDLE(addr);
    26ec:	fe042623          	sw	zero,-20(s0)
    26f0:	a031                	j	26fc <csi_usart_config_databits+0x40>
    26f2:	fec42783          	lw	a5,-20(s0)
    26f6:	0785                	addi	a5,a5,1
    26f8:	fef42623          	sw	a5,-20(s0)
    26fc:	fe442783          	lw	a5,-28(s0)
    2700:	5ffc                	lw	a5,124(a5)
    2702:	8b85                	andi	a5,a5,1
    2704:	cb89                	beqz	a5,2716 <csi_usart_config_databits+0x5a>
    2706:	fec42703          	lw	a4,-20(s0)
    270a:	000f47b7          	lui	a5,0xf4
    270e:	23f78793          	addi	a5,a5,575 # f423f <__min_heap_size+0xe423f>
    2712:	fee7d0e3          	bge	a5,a4,26f2 <csi_usart_config_databits+0x36>
    2716:	fec42703          	lw	a4,-20(s0)
    271a:	000f47b7          	lui	a5,0xf4
    271e:	23f78793          	addi	a5,a5,575 # f423f <__min_heap_size+0xe423f>
    2722:	00e7d763          	bge	a5,a4,2730 <csi_usart_config_databits+0x74>
    2726:	810207b7          	lui	a5,0x81020
    272a:	08278793          	addi	a5,a5,130 # 81020082 <__heap_end+0x61000082>
    272e:	a845                	j	27de <csi_usart_config_databits+0x122>
     *       01 -- 6 bits
     *       10 -- 7 bits
     *       11 -- 8 bits
     */

    switch (databits) {
    2730:	fd842703          	lw	a4,-40(s0)
    2734:	478d                	li	a5,3
    2736:	08f70563          	beq	a4,a5,27c0 <csi_usart_config_databits+0x104>
    273a:	fd842703          	lw	a4,-40(s0)
    273e:	478d                	li	a5,3
    2740:	08e7e963          	bltu	a5,a4,27d2 <csi_usart_config_databits+0x116>
    2744:	fd842703          	lw	a4,-40(s0)
    2748:	4789                	li	a5,2
    274a:	04f70a63          	beq	a4,a5,279e <csi_usart_config_databits+0xe2>
    274e:	fd842703          	lw	a4,-40(s0)
    2752:	4789                	li	a5,2
    2754:	06e7ef63          	bltu	a5,a4,27d2 <csi_usart_config_databits+0x116>
    2758:	fd842783          	lw	a5,-40(s0)
    275c:	c799                	beqz	a5,276a <csi_usart_config_databits+0xae>
    275e:	fd842703          	lw	a4,-40(s0)
    2762:	4785                	li	a5,1
    2764:	00f70c63          	beq	a4,a5,277c <csi_usart_config_databits+0xc0>
    2768:	a0ad                	j	27d2 <csi_usart_config_databits+0x116>
        case USART_DATA_BITS_5:
            addr->LCR &= LCR_WORD_SIZE_5;
    276a:	fe442783          	lw	a5,-28(s0)
    276e:	47dc                	lw	a5,12(a5)
    2770:	0fc7f713          	andi	a4,a5,252
    2774:	fe442783          	lw	a5,-28(s0)
    2778:	c7d8                	sw	a4,12(a5)
            break;
    277a:	a08d                	j	27dc <csi_usart_config_databits+0x120>

        case USART_DATA_BITS_6:
            addr->LCR &= 0xfd;
    277c:	fe442783          	lw	a5,-28(s0)
    2780:	47dc                	lw	a5,12(a5)
    2782:	0fd7f713          	andi	a4,a5,253
    2786:	fe442783          	lw	a5,-28(s0)
    278a:	c7d8                	sw	a4,12(a5)
            addr->LCR |= LCR_WORD_SIZE_6;
    278c:	fe442783          	lw	a5,-28(s0)
    2790:	47dc                	lw	a5,12(a5)
    2792:	0017e713          	ori	a4,a5,1
    2796:	fe442783          	lw	a5,-28(s0)
    279a:	c7d8                	sw	a4,12(a5)
            break;
    279c:	a081                	j	27dc <csi_usart_config_databits+0x120>

        case USART_DATA_BITS_7:
            addr->LCR &= 0xfe;
    279e:	fe442783          	lw	a5,-28(s0)
    27a2:	47dc                	lw	a5,12(a5)
    27a4:	0fe7f713          	andi	a4,a5,254
    27a8:	fe442783          	lw	a5,-28(s0)
    27ac:	c7d8                	sw	a4,12(a5)
            addr->LCR |= LCR_WORD_SIZE_7;
    27ae:	fe442783          	lw	a5,-28(s0)
    27b2:	47dc                	lw	a5,12(a5)
    27b4:	0027e713          	ori	a4,a5,2
    27b8:	fe442783          	lw	a5,-28(s0)
    27bc:	c7d8                	sw	a4,12(a5)
            break;
    27be:	a839                	j	27dc <csi_usart_config_databits+0x120>

        case USART_DATA_BITS_8:
            addr->LCR |= LCR_WORD_SIZE_8;
    27c0:	fe442783          	lw	a5,-28(s0)
    27c4:	47dc                	lw	a5,12(a5)
    27c6:	0037e713          	ori	a4,a5,3
    27ca:	fe442783          	lw	a5,-28(s0)
    27ce:	c7d8                	sw	a4,12(a5)
            break;
    27d0:	a031                	j	27dc <csi_usart_config_databits+0x120>

        default:
            return ERR_USART(USART_ERROR_DATA_BITS);
    27d2:	810207b7          	lui	a5,0x81020
    27d6:	08878793          	addi	a5,a5,136 # 81020088 <__heap_end+0x61000088>
    27da:	a011                	j	27de <csi_usart_config_databits+0x122>
    }

    return 0;
    27dc:	4781                	li	a5,0
}
    27de:	853e                	mv	a0,a5
    27e0:	5432                	lw	s0,44(sp)
    27e2:	6145                	addi	sp,sp,48
    27e4:	8082                	ret

000027e6 <csi_usart_getchar>:
  \param[in]   instance  usart instance to operate.
  \param[in]   the pointer to the recieve charater.
  \return      error code
*/
int32_t csi_usart_getchar(usart_handle_t handle, uint8_t *ch)
{
    27e6:	7179                	addi	sp,sp,-48
    27e8:	d622                	sw	s0,44(sp)
    27ea:	1800                	addi	s0,sp,48
    27ec:	fca42e23          	sw	a0,-36(s0)
    27f0:	fcb42c23          	sw	a1,-40(s0)
    USART_NULL_PARAM_CHK(handle);
    27f4:	fdc42783          	lw	a5,-36(s0)
    27f8:	e791                	bnez	a5,2804 <csi_usart_getchar+0x1e>
    27fa:	810207b7          	lui	a5,0x81020
    27fe:	08478793          	addi	a5,a5,132 # 81020084 <__heap_end+0x61000084>
    2802:	a091                	j	2846 <csi_usart_getchar+0x60>
    USART_NULL_PARAM_CHK(ch);
    2804:	fd842783          	lw	a5,-40(s0)
    2808:	e791                	bnez	a5,2814 <csi_usart_getchar+0x2e>
    280a:	810207b7          	lui	a5,0x81020
    280e:	08478793          	addi	a5,a5,132 # 81020084 <__heap_end+0x61000084>
    2812:	a815                	j	2846 <csi_usart_getchar+0x60>

    ck_usart_priv_t *usart_priv = handle;
    2814:	fdc42783          	lw	a5,-36(s0)
    2818:	fef42623          	sw	a5,-20(s0)
    ck_usart_reg_t *addr = (ck_usart_reg_t *)(usart_priv->base);
    281c:	fec42783          	lw	a5,-20(s0)
    2820:	439c                	lw	a5,0(a5)
    2822:	fef42423          	sw	a5,-24(s0)

    while (!(addr->LSR & LSR_DATA_READY));
    2826:	0001                	nop
    2828:	fe842783          	lw	a5,-24(s0)
    282c:	4bdc                	lw	a5,20(a5)
    282e:	8b85                	andi	a5,a5,1
    2830:	dfe5                	beqz	a5,2828 <csi_usart_getchar+0x42>

    *ch = addr->RBR;
    2832:	fe842783          	lw	a5,-24(s0)
    2836:	439c                	lw	a5,0(a5)
    2838:	0ff7f713          	andi	a4,a5,255
    283c:	fd842783          	lw	a5,-40(s0)
    2840:	00e78023          	sb	a4,0(a5)

    return 0;
    2844:	4781                	li	a5,0
}
    2846:	853e                	mv	a0,a5
    2848:	5432                	lw	s0,44(sp)
    284a:	6145                	addi	sp,sp,48
    284c:	8082                	ret

0000284e <csi_usart_putchar>:
  \param[in]   instance  usart instance to operate.
  \param[in]   ch  the input charater
  \return      error code
*/
int32_t csi_usart_putchar(usart_handle_t handle, uint8_t ch)
{
    284e:	7179                	addi	sp,sp,-48
    2850:	d622                	sw	s0,44(sp)
    2852:	1800                	addi	s0,sp,48
    2854:	fca42e23          	sw	a0,-36(s0)
    2858:	87ae                	mv	a5,a1
    285a:	fcf40da3          	sb	a5,-37(s0)
    USART_NULL_PARAM_CHK(handle);
    285e:	fdc42783          	lw	a5,-36(s0)
    2862:	e791                	bnez	a5,286e <csi_usart_putchar+0x20>
    2864:	810207b7          	lui	a5,0x81020
    2868:	08478793          	addi	a5,a5,132 # 81020084 <__heap_end+0x61000084>
    286c:	a899                	j	28c2 <csi_usart_putchar+0x74>
    ck_usart_priv_t *usart_priv = handle;
    286e:	fdc42783          	lw	a5,-36(s0)
    2872:	fef42423          	sw	a5,-24(s0)
    ck_usart_reg_t *addr = (ck_usart_reg_t *)(usart_priv->base);
    2876:	fe842783          	lw	a5,-24(s0)
    287a:	439c                	lw	a5,0(a5)
    287c:	fef42223          	sw	a5,-28(s0)
    uint32_t timecount = 0;
    2880:	fe042623          	sw	zero,-20(s0)

    while ((!(addr->LSR & DW_LSR_TRANS_EMPTY))) {
    2884:	a01d                	j	28aa <csi_usart_putchar+0x5c>
        timecount++;
    2886:	fec42783          	lw	a5,-20(s0)
    288a:	0785                	addi	a5,a5,1
    288c:	fef42623          	sw	a5,-20(s0)

        if (timecount >= UART_BUSY_TIMEOUT) {
    2890:	fec42703          	lw	a4,-20(s0)
    2894:	000f47b7          	lui	a5,0xf4
    2898:	23f78793          	addi	a5,a5,575 # f423f <__min_heap_size+0xe423f>
    289c:	00e7f763          	bgeu	a5,a4,28aa <csi_usart_putchar+0x5c>
            return ERR_USART(DRV_ERROR_TIMEOUT);
    28a0:	810207b7          	lui	a5,0x81020
    28a4:	08278793          	addi	a5,a5,130 # 81020082 <__heap_end+0x61000082>
    28a8:	a829                	j	28c2 <csi_usart_putchar+0x74>
    while ((!(addr->LSR & DW_LSR_TRANS_EMPTY))) {
    28aa:	fe442783          	lw	a5,-28(s0)
    28ae:	4bdc                	lw	a5,20(a5)
    28b0:	0207f793          	andi	a5,a5,32
    28b4:	dbe9                	beqz	a5,2886 <csi_usart_putchar+0x38>
        }
    }

    addr->THR = ch;
    28b6:	fdb44703          	lbu	a4,-37(s0)
    28ba:	fe442783          	lw	a5,-28(s0)
    28be:	c398                	sw	a4,0(a5)

    return 0;
    28c0:	4781                	li	a5,0

}
    28c2:	853e                	mv	a0,a5
    28c4:	5432                	lw	s0,44(sp)
    28c6:	6145                	addi	sp,sp,48
    28c8:	8082                	ret

000028ca <ck_usart_intr_threshold_empty>:
/**
  \brief       interrupt service function for transmitter holding register empty.
  \param[in]   usart_priv usart private to operate.
*/
void ck_usart_intr_threshold_empty(int32_t idx, ck_usart_priv_t *usart_priv)
{
    28ca:	7179                	addi	sp,sp,-48
    28cc:	d606                	sw	ra,44(sp)
    28ce:	d422                	sw	s0,40(sp)
    28d0:	1800                	addi	s0,sp,48
    28d2:	fca42e23          	sw	a0,-36(s0)
    28d6:	fcb42c23          	sw	a1,-40(s0)
    if (usart_priv->tx_total_num == 0) {
    28da:	fd842783          	lw	a5,-40(s0)
    28de:	4b9c                	lw	a5,16(a5)
    28e0:	cbf5                	beqz	a5,29d4 <ck_usart_intr_threshold_empty+0x10a>
        return;
    }

    volatile int i = 500;
    28e2:	1f400793          	li	a5,500
    28e6:	fef42423          	sw	a5,-24(s0)
    ck_usart_reg_t *addr = (ck_usart_reg_t *)(usart_priv->base);
    28ea:	fd842783          	lw	a5,-40(s0)
    28ee:	439c                	lw	a5,0(a5)
    28f0:	fef42623          	sw	a5,-20(s0)

    if (usart_priv->tx_cnt >= usart_priv->tx_total_num) {
    28f4:	fd842783          	lw	a5,-40(s0)
    28f8:	5398                	lw	a4,32(a5)
    28fa:	fd842783          	lw	a5,-40(s0)
    28fe:	4b9c                	lw	a5,16(a5)
    2900:	06f76e63          	bltu	a4,a5,297c <ck_usart_intr_threshold_empty+0xb2>
        addr->IER &= (~IER_THRE_INT_ENABLE);
    2904:	fec42783          	lw	a5,-20(s0)
    2908:	43dc                	lw	a5,4(a5)
    290a:	ffd7f713          	andi	a4,a5,-3
    290e:	fec42783          	lw	a5,-20(s0)
    2912:	c3d8                	sw	a4,4(a5)
        usart_priv->last_tx_num = usart_priv->tx_total_num;
    2914:	fd842783          	lw	a5,-40(s0)
    2918:	4b98                	lw	a4,16(a5)
    291a:	fd842783          	lw	a5,-40(s0)
    291e:	d7d8                	sw	a4,44(a5)

        /* fix hardware bug */
        while (addr->USR & USR_UART_BUSY);
    2920:	0001                	nop
    2922:	fec42783          	lw	a5,-20(s0)
    2926:	5ffc                	lw	a5,124(a5)
    2928:	8b85                	andi	a5,a5,1
    292a:	ffe5                	bnez	a5,2922 <ck_usart_intr_threshold_empty+0x58>

        i = 500;
    292c:	1f400793          	li	a5,500
    2930:	fef42423          	sw	a5,-24(s0)

        while (i--);
    2934:	0001                	nop
    2936:	fe842783          	lw	a5,-24(s0)
    293a:	fff78713          	addi	a4,a5,-1
    293e:	fee42423          	sw	a4,-24(s0)
    2942:	fbf5                	bnez	a5,2936 <ck_usart_intr_threshold_empty+0x6c>

        usart_priv->tx_cnt = 0;
    2944:	fd842783          	lw	a5,-40(s0)
    2948:	0207a023          	sw	zero,32(a5)
        usart_priv->tx_busy = 0;
    294c:	fd842783          	lw	a5,-40(s0)
    2950:	0207a223          	sw	zero,36(a5)
        usart_priv->tx_buf = NULL;
    2954:	fd842783          	lw	a5,-40(s0)
    2958:	0007ac23          	sw	zero,24(a5)
        usart_priv->tx_total_num = 0;
    295c:	fd842783          	lw	a5,-40(s0)
    2960:	0007a823          	sw	zero,16(a5)

        if (usart_priv->cb_event) {
    2964:	fd842783          	lw	a5,-40(s0)
    2968:	479c                	lw	a5,8(a5)
    296a:	c7b5                	beqz	a5,29d6 <ck_usart_intr_threshold_empty+0x10c>
            usart_priv->cb_event(idx, USART_EVENT_SEND_COMPLETE);
    296c:	fd842783          	lw	a5,-40(s0)
    2970:	479c                	lw	a5,8(a5)
    2972:	4581                	li	a1,0
    2974:	fdc42503          	lw	a0,-36(s0)
    2978:	9782                	jalr	a5
    297a:	a8b1                	j	29d6 <ck_usart_intr_threshold_empty+0x10c>
        }
    } else {
        /* fix hardware bug */
        while (addr->USR & USR_UART_BUSY);
    297c:	0001                	nop
    297e:	fec42783          	lw	a5,-20(s0)
    2982:	5ffc                	lw	a5,124(a5)
    2984:	8b85                	andi	a5,a5,1
    2986:	ffe5                	bnez	a5,297e <ck_usart_intr_threshold_empty+0xb4>

        i = 500;
    2988:	1f400793          	li	a5,500
    298c:	fef42423          	sw	a5,-24(s0)

        while (i--);
    2990:	0001                	nop
    2992:	fe842783          	lw	a5,-24(s0)
    2996:	fff78713          	addi	a4,a5,-1
    299a:	fee42423          	sw	a4,-24(s0)
    299e:	fbf5                	bnez	a5,2992 <ck_usart_intr_threshold_empty+0xc8>

        addr->THR = *((uint8_t *)usart_priv->tx_buf);
    29a0:	fd842783          	lw	a5,-40(s0)
    29a4:	4f9c                	lw	a5,24(a5)
    29a6:	0007c783          	lbu	a5,0(a5)
    29aa:	873e                	mv	a4,a5
    29ac:	fec42783          	lw	a5,-20(s0)
    29b0:	c398                	sw	a4,0(a5)
        usart_priv->tx_cnt++;
    29b2:	fd842783          	lw	a5,-40(s0)
    29b6:	539c                	lw	a5,32(a5)
    29b8:	00178713          	addi	a4,a5,1
    29bc:	fd842783          	lw	a5,-40(s0)
    29c0:	d398                	sw	a4,32(a5)
        usart_priv->tx_buf++;
    29c2:	fd842783          	lw	a5,-40(s0)
    29c6:	4f9c                	lw	a5,24(a5)
    29c8:	00178713          	addi	a4,a5,1
    29cc:	fd842783          	lw	a5,-40(s0)
    29d0:	cf98                	sw	a4,24(a5)
    29d2:	a011                	j	29d6 <ck_usart_intr_threshold_empty+0x10c>
        return;
    29d4:	0001                	nop
    }
}
    29d6:	50b2                	lw	ra,44(sp)
    29d8:	5422                	lw	s0,40(sp)
    29da:	6145                	addi	sp,sp,48
    29dc:	8082                	ret

000029de <ck_usart_intr_recv_data>:
/**
  \brief        interrupt service function for receiver data available.
  \param[in]   usart_priv usart private to operate.
*/
static void ck_usart_intr_recv_data(int32_t idx, ck_usart_priv_t *usart_priv)
{
    29de:	7179                	addi	sp,sp,-48
    29e0:	d606                	sw	ra,44(sp)
    29e2:	d422                	sw	s0,40(sp)
    29e4:	1800                	addi	s0,sp,48
    29e6:	fca42e23          	sw	a0,-36(s0)
    29ea:	fcb42c23          	sw	a1,-40(s0)
    ck_usart_reg_t *addr = (ck_usart_reg_t *)(usart_priv->base);
    29ee:	fd842783          	lw	a5,-40(s0)
    29f2:	439c                	lw	a5,0(a5)
    29f4:	fef42623          	sw	a5,-20(s0)
    uint8_t data = addr->RBR;
    29f8:	fec42783          	lw	a5,-20(s0)
    29fc:	439c                	lw	a5,0(a5)
    29fe:	fef405a3          	sb	a5,-21(s0)

    *((uint8_t *)usart_priv->rx_buf) = data;
    2a02:	fd842783          	lw	a5,-40(s0)
    2a06:	4bdc                	lw	a5,20(a5)
    2a08:	feb44703          	lbu	a4,-21(s0)
    2a0c:	00e78023          	sb	a4,0(a5)
    usart_priv->rx_cnt++;
    2a10:	fd842783          	lw	a5,-40(s0)
    2a14:	4fdc                	lw	a5,28(a5)
    2a16:	00178713          	addi	a4,a5,1
    2a1a:	fd842783          	lw	a5,-40(s0)
    2a1e:	cfd8                	sw	a4,28(a5)
    usart_priv->rx_buf++;
    2a20:	fd842783          	lw	a5,-40(s0)
    2a24:	4bdc                	lw	a5,20(a5)
    2a26:	00178713          	addi	a4,a5,1
    2a2a:	fd842783          	lw	a5,-40(s0)
    2a2e:	cbd8                	sw	a4,20(a5)

    if (usart_priv->rx_cnt >= usart_priv->rx_total_num) {
    2a30:	fd842783          	lw	a5,-40(s0)
    2a34:	4fd8                	lw	a4,28(a5)
    2a36:	fd842783          	lw	a5,-40(s0)
    2a3a:	47dc                	lw	a5,12(a5)
    2a3c:	04f76363          	bltu	a4,a5,2a82 <ck_usart_intr_recv_data+0xa4>
        usart_priv->last_rx_num = usart_priv->rx_total_num;
    2a40:	fd842783          	lw	a5,-40(s0)
    2a44:	47d8                	lw	a4,12(a5)
    2a46:	fd842783          	lw	a5,-40(s0)
    2a4a:	db98                	sw	a4,48(a5)
        usart_priv->rx_cnt = 0;
    2a4c:	fd842783          	lw	a5,-40(s0)
    2a50:	0007ae23          	sw	zero,28(a5)
        usart_priv->rx_buf = NULL;
    2a54:	fd842783          	lw	a5,-40(s0)
    2a58:	0007aa23          	sw	zero,20(a5)
        usart_priv->rx_busy = 0;
    2a5c:	fd842783          	lw	a5,-40(s0)
    2a60:	0207a423          	sw	zero,40(a5)
        usart_priv->rx_total_num = 0;
    2a64:	fd842783          	lw	a5,-40(s0)
    2a68:	0007a623          	sw	zero,12(a5)

        if (usart_priv->cb_event) {
    2a6c:	fd842783          	lw	a5,-40(s0)
    2a70:	479c                	lw	a5,8(a5)
    2a72:	cb81                	beqz	a5,2a82 <ck_usart_intr_recv_data+0xa4>
            usart_priv->cb_event(idx, USART_EVENT_RECEIVE_COMPLETE);
    2a74:	fd842783          	lw	a5,-40(s0)
    2a78:	479c                	lw	a5,8(a5)
    2a7a:	4585                	li	a1,1
    2a7c:	fdc42503          	lw	a0,-36(s0)
    2a80:	9782                	jalr	a5
        }
    }

}
    2a82:	0001                	nop
    2a84:	50b2                	lw	ra,44(sp)
    2a86:	5422                	lw	s0,40(sp)
    2a88:	6145                	addi	sp,sp,48
    2a8a:	8082                	ret

00002a8c <ck_usart_intr_recv_line>:
/**
  \brief        interrupt service function for receiver line.
  \param[in]   usart_priv usart private to operate.
*/
static void ck_usart_intr_recv_line(int32_t idx, ck_usart_priv_t *usart_priv)
{
    2a8c:	7179                	addi	sp,sp,-48
    2a8e:	d606                	sw	ra,44(sp)
    2a90:	d422                	sw	s0,40(sp)
    2a92:	1800                	addi	s0,sp,48
    2a94:	fca42e23          	sw	a0,-36(s0)
    2a98:	fcb42c23          	sw	a1,-40(s0)
    ck_usart_reg_t *addr = (ck_usart_reg_t *)(usart_priv->base);
    2a9c:	fd842783          	lw	a5,-40(s0)
    2aa0:	439c                	lw	a5,0(a5)
    2aa2:	fef42423          	sw	a5,-24(s0)
    uint32_t lsr_stat = addr->LSR;
    2aa6:	fe842783          	lw	a5,-24(s0)
    2aaa:	4bdc                	lw	a5,20(a5)
    2aac:	fef42223          	sw	a5,-28(s0)

    addr->IER &= (~IER_THRE_INT_ENABLE);
    2ab0:	fe842783          	lw	a5,-24(s0)
    2ab4:	43dc                	lw	a5,4(a5)
    2ab6:	ffd7f713          	andi	a4,a5,-3
    2aba:	fe842783          	lw	a5,-24(s0)
    2abe:	c3d8                	sw	a4,4(a5)

    uint32_t timecount = 0;
    2ac0:	fe042623          	sw	zero,-20(s0)

    while (addr->LSR & 0x1) {
    2ac4:	a82d                	j	2afe <ck_usart_intr_recv_line+0x72>
        addr->RBR;
    2ac6:	fe842783          	lw	a5,-24(s0)
    2aca:	439c                	lw	a5,0(a5)
        timecount++;
    2acc:	fec42783          	lw	a5,-20(s0)
    2ad0:	0785                	addi	a5,a5,1
    2ad2:	fef42623          	sw	a5,-20(s0)

        if (timecount >= UART_BUSY_TIMEOUT) {
    2ad6:	fec42703          	lw	a4,-20(s0)
    2ada:	000f47b7          	lui	a5,0xf4
    2ade:	23f78793          	addi	a5,a5,575 # f423f <__min_heap_size+0xe423f>
    2ae2:	00e7fe63          	bgeu	a5,a4,2afe <ck_usart_intr_recv_line+0x72>
            if (usart_priv->cb_event) {
    2ae6:	fd842783          	lw	a5,-40(s0)
    2aea:	479c                	lw	a5,8(a5)
    2aec:	cfd1                	beqz	a5,2b88 <ck_usart_intr_recv_line+0xfc>
                usart_priv->cb_event(idx, USART_EVENT_RX_TIMEOUT);
    2aee:	fd842783          	lw	a5,-40(s0)
    2af2:	479c                	lw	a5,8(a5)
    2af4:	4599                	li	a1,6
    2af6:	fdc42503          	lw	a0,-36(s0)
    2afa:	9782                	jalr	a5
            }

            return;
    2afc:	a071                	j	2b88 <ck_usart_intr_recv_line+0xfc>
    while (addr->LSR & 0x1) {
    2afe:	fe842783          	lw	a5,-24(s0)
    2b02:	4bdc                	lw	a5,20(a5)
    2b04:	8b85                	andi	a5,a5,1
    2b06:	f3e1                	bnez	a5,2ac6 <ck_usart_intr_recv_line+0x3a>
    }

    /** Break Interrupt bit. This is used to indicate the detection of a
      * break sequence on the serial input data.
      */
    if (lsr_stat & DW_LSR_BI) {
    2b08:	fe442783          	lw	a5,-28(s0)
    2b0c:	8bc1                	andi	a5,a5,16
    2b0e:	cf89                	beqz	a5,2b28 <ck_usart_intr_recv_line+0x9c>
        if (usart_priv->cb_event) {
    2b10:	fd842783          	lw	a5,-40(s0)
    2b14:	479c                	lw	a5,8(a5)
    2b16:	cbbd                	beqz	a5,2b8c <ck_usart_intr_recv_line+0x100>
            usart_priv->cb_event(idx, USART_EVENT_RX_BREAK);
    2b18:	fd842783          	lw	a5,-40(s0)
    2b1c:	479c                	lw	a5,8(a5)
    2b1e:	459d                	li	a1,7
    2b20:	fdc42503          	lw	a0,-36(s0)
    2b24:	9782                	jalr	a5
        }

        return;
    2b26:	a09d                	j	2b8c <ck_usart_intr_recv_line+0x100>

    /** Framing Error bit. This is used to indicate the occurrence of a
      * framing error in the receiver. A framing error occurs when the receiver
      * does not detect a valid STOP bit in the received data.
      */
    if (lsr_stat & DW_LSR_FE) {
    2b28:	fe442783          	lw	a5,-28(s0)
    2b2c:	8ba1                	andi	a5,a5,8
    2b2e:	cf89                	beqz	a5,2b48 <ck_usart_intr_recv_line+0xbc>
        if (usart_priv->cb_event) {
    2b30:	fd842783          	lw	a5,-40(s0)
    2b34:	479c                	lw	a5,8(a5)
    2b36:	cfa9                	beqz	a5,2b90 <ck_usart_intr_recv_line+0x104>
            usart_priv->cb_event(idx, USART_EVENT_RX_FRAMING_ERROR);
    2b38:	fd842783          	lw	a5,-40(s0)
    2b3c:	479c                	lw	a5,8(a5)
    2b3e:	45a1                	li	a1,8
    2b40:	fdc42503          	lw	a0,-36(s0)
    2b44:	9782                	jalr	a5
        }

        return;
    2b46:	a0a9                	j	2b90 <ck_usart_intr_recv_line+0x104>

    /** Framing Error bit. This is used to indicate the occurrence of a
      * framing error in the receiver. A framing error occurs when the
      * receiver does not detect a valid STOP bit in the received data.
      */
    if (lsr_stat & DW_LSR_PE) {
    2b48:	fe442783          	lw	a5,-28(s0)
    2b4c:	8b91                	andi	a5,a5,4
    2b4e:	cf89                	beqz	a5,2b68 <ck_usart_intr_recv_line+0xdc>
        if (usart_priv->cb_event) {
    2b50:	fd842783          	lw	a5,-40(s0)
    2b54:	479c                	lw	a5,8(a5)
    2b56:	cf9d                	beqz	a5,2b94 <ck_usart_intr_recv_line+0x108>
            usart_priv->cb_event(idx, USART_EVENT_RX_PARITY_ERROR);
    2b58:	fd842783          	lw	a5,-40(s0)
    2b5c:	479c                	lw	a5,8(a5)
    2b5e:	45a5                	li	a1,9
    2b60:	fdc42503          	lw	a0,-36(s0)
    2b64:	9782                	jalr	a5
        }

        return;
    2b66:	a03d                	j	2b94 <ck_usart_intr_recv_line+0x108>
    }

    /** Overrun error bit. This is used to indicate the occurrence of an overrun error.
      * This occurs if a new data character was received before the previous data was read.
      */
    if (lsr_stat & DW_LSR_OE) {
    2b68:	fe442783          	lw	a5,-28(s0)
    2b6c:	8b89                	andi	a5,a5,2
    2b6e:	c795                	beqz	a5,2b9a <ck_usart_intr_recv_line+0x10e>
        if (usart_priv->cb_event) {
    2b70:	fd842783          	lw	a5,-40(s0)
    2b74:	479c                	lw	a5,8(a5)
    2b76:	c38d                	beqz	a5,2b98 <ck_usart_intr_recv_line+0x10c>
            usart_priv->cb_event(idx, USART_EVENT_RX_OVERFLOW);
    2b78:	fd842783          	lw	a5,-40(s0)
    2b7c:	479c                	lw	a5,8(a5)
    2b7e:	4595                	li	a1,5
    2b80:	fdc42503          	lw	a0,-36(s0)
    2b84:	9782                	jalr	a5
        }

        return;
    2b86:	a809                	j	2b98 <ck_usart_intr_recv_line+0x10c>
            return;
    2b88:	0001                	nop
    2b8a:	a801                	j	2b9a <ck_usart_intr_recv_line+0x10e>
        return;
    2b8c:	0001                	nop
    2b8e:	a031                	j	2b9a <ck_usart_intr_recv_line+0x10e>
        return;
    2b90:	0001                	nop
    2b92:	a021                	j	2b9a <ck_usart_intr_recv_line+0x10e>
        return;
    2b94:	0001                	nop
    2b96:	a011                	j	2b9a <ck_usart_intr_recv_line+0x10e>
        return;
    2b98:	0001                	nop

    }

}
    2b9a:	50b2                	lw	ra,44(sp)
    2b9c:	5422                	lw	s0,40(sp)
    2b9e:	6145                	addi	sp,sp,48
    2ba0:	8082                	ret

00002ba2 <ck_usart_intr_char_timeout>:
/**
  \brief        interrupt service function for character timeout.
  \param[in]   usart_priv usart private to operate.
*/
static void ck_usart_intr_char_timeout(int32_t idx, ck_usart_priv_t *usart_priv)
{
    2ba2:	7179                	addi	sp,sp,-48
    2ba4:	d606                	sw	ra,44(sp)
    2ba6:	d422                	sw	s0,40(sp)
    2ba8:	1800                	addi	s0,sp,48
    2baa:	fca42e23          	sw	a0,-36(s0)
    2bae:	fcb42c23          	sw	a1,-40(s0)
    if ((usart_priv->rx_total_num != 0) && (usart_priv->rx_buf != NULL)) {
    2bb2:	fd842783          	lw	a5,-40(s0)
    2bb6:	47dc                	lw	a5,12(a5)
    2bb8:	cf91                	beqz	a5,2bd4 <ck_usart_intr_char_timeout+0x32>
    2bba:	fd842783          	lw	a5,-40(s0)
    2bbe:	4bdc                	lw	a5,20(a5)
    2bc0:	cb91                	beqz	a5,2bd4 <ck_usart_intr_char_timeout+0x32>
        ck_usart_intr_recv_data(idx, usart_priv);
    2bc2:	fd842583          	lw	a1,-40(s0)
    2bc6:	fdc42503          	lw	a0,-36(s0)
    2bca:	00000097          	auipc	ra,0x0
    2bce:	e14080e7          	jalr	-492(ra) # 29de <ck_usart_intr_recv_data>
        return;
    2bd2:	a885                	j	2c42 <ck_usart_intr_char_timeout+0xa0>
    }

    if (usart_priv->cb_event) {
    2bd4:	fd842783          	lw	a5,-40(s0)
    2bd8:	479c                	lw	a5,8(a5)
    2bda:	cb89                	beqz	a5,2bec <ck_usart_intr_char_timeout+0x4a>
        usart_priv->cb_event(idx, USART_EVENT_RECEIVED);
    2bdc:	fd842783          	lw	a5,-40(s0)
    2be0:	479c                	lw	a5,8(a5)
    2be2:	45b9                	li	a1,14
    2be4:	fdc42503          	lw	a0,-36(s0)
    2be8:	9782                	jalr	a5
    2bea:	a8a1                	j	2c42 <ck_usart_intr_char_timeout+0xa0>
    } else {
        ck_usart_reg_t *addr = (ck_usart_reg_t *)(usart_priv->base);
    2bec:	fd842783          	lw	a5,-40(s0)
    2bf0:	439c                	lw	a5,0(a5)
    2bf2:	fef42423          	sw	a5,-24(s0)

        uint32_t timecount = 0;
    2bf6:	fe042623          	sw	zero,-20(s0)

        while (addr->LSR & 0x1) {
    2bfa:	a82d                	j	2c34 <ck_usart_intr_char_timeout+0x92>
            addr->RBR;
    2bfc:	fe842783          	lw	a5,-24(s0)
    2c00:	439c                	lw	a5,0(a5)
            timecount++;
    2c02:	fec42783          	lw	a5,-20(s0)
    2c06:	0785                	addi	a5,a5,1
    2c08:	fef42623          	sw	a5,-20(s0)

            if (timecount >= UART_BUSY_TIMEOUT) {
    2c0c:	fec42703          	lw	a4,-20(s0)
    2c10:	000f47b7          	lui	a5,0xf4
    2c14:	23f78793          	addi	a5,a5,575 # f423f <__min_heap_size+0xe423f>
    2c18:	00e7fe63          	bgeu	a5,a4,2c34 <ck_usart_intr_char_timeout+0x92>
                if (usart_priv->cb_event) {
    2c1c:	fd842783          	lw	a5,-40(s0)
    2c20:	479c                	lw	a5,8(a5)
    2c22:	cf99                	beqz	a5,2c40 <ck_usart_intr_char_timeout+0x9e>
                    usart_priv->cb_event(idx, USART_EVENT_RX_TIMEOUT);
    2c24:	fd842783          	lw	a5,-40(s0)
    2c28:	479c                	lw	a5,8(a5)
    2c2a:	4599                	li	a1,6
    2c2c:	fdc42503          	lw	a0,-36(s0)
    2c30:	9782                	jalr	a5
                }

                return;
    2c32:	a039                	j	2c40 <ck_usart_intr_char_timeout+0x9e>
        while (addr->LSR & 0x1) {
    2c34:	fe842783          	lw	a5,-24(s0)
    2c38:	4bdc                	lw	a5,20(a5)
    2c3a:	8b85                	andi	a5,a5,1
    2c3c:	f3e1                	bnez	a5,2bfc <ck_usart_intr_char_timeout+0x5a>
    2c3e:	a011                	j	2c42 <ck_usart_intr_char_timeout+0xa0>
                return;
    2c40:	0001                	nop
            }
        }
    }
}
    2c42:	50b2                	lw	ra,44(sp)
    2c44:	5422                	lw	s0,40(sp)
    2c46:	6145                	addi	sp,sp,48
    2c48:	8082                	ret

00002c4a <ck_usart_irqhandler>:
/**
  \brief       the interrupt service function.
  \param[in]   index of usart instance.
*/
void ck_usart_irqhandler(int32_t idx)
{
    2c4a:	7179                	addi	sp,sp,-48
    2c4c:	d606                	sw	ra,44(sp)
    2c4e:	d422                	sw	s0,40(sp)
    2c50:	1800                	addi	s0,sp,48
    2c52:	fca42e23          	sw	a0,-36(s0)
    ck_usart_priv_t *usart_priv = &usart_instance[idx];
    2c56:	fdc42703          	lw	a4,-36(s0)
    2c5a:	87ba                	mv	a5,a4
    2c5c:	078e                	slli	a5,a5,0x3
    2c5e:	8f99                	sub	a5,a5,a4
    2c60:	078e                	slli	a5,a5,0x3
    2c62:	2000a737          	lui	a4,0x2000a
    2c66:	3cc70713          	addi	a4,a4,972 # 2000a3cc <usart_instance>
    2c6a:	97ba                	add	a5,a5,a4
    2c6c:	fef42623          	sw	a5,-20(s0)
    ck_usart_reg_t *addr = (ck_usart_reg_t *)(usart_priv->base);
    2c70:	fec42783          	lw	a5,-20(s0)
    2c74:	439c                	lw	a5,0(a5)
    2c76:	fef42423          	sw	a5,-24(s0)

    uint8_t intr_state = addr->IIR & 0xf;
    2c7a:	fe842783          	lw	a5,-24(s0)
    2c7e:	479c                	lw	a5,8(a5)
    2c80:	0ff7f793          	andi	a5,a5,255
    2c84:	8bbd                	andi	a5,a5,15
    2c86:	fef403a3          	sb	a5,-25(s0)

    switch (intr_state) {
    2c8a:	fe744783          	lbu	a5,-25(s0)
    2c8e:	4731                	li	a4,12
    2c90:	04e78d63          	beq	a5,a4,2cea <ck_usart_irqhandler+0xa0>
    2c94:	4731                	li	a4,12
    2c96:	06f74363          	blt	a4,a5,2cfc <ck_usart_irqhandler+0xb2>
    2c9a:	4719                	li	a4,6
    2c9c:	02e78e63          	beq	a5,a4,2cd8 <ck_usart_irqhandler+0x8e>
    2ca0:	4719                	li	a4,6
    2ca2:	04f74d63          	blt	a4,a5,2cfc <ck_usart_irqhandler+0xb2>
    2ca6:	4709                	li	a4,2
    2ca8:	00e78663          	beq	a5,a4,2cb4 <ck_usart_irqhandler+0x6a>
    2cac:	4711                	li	a4,4
    2cae:	00e78c63          	beq	a5,a4,2cc6 <ck_usart_irqhandler+0x7c>
        case DW_IIR_CHAR_TIMEOUT:
            ck_usart_intr_char_timeout(idx, usart_priv);
            break;

        default:
            break;
    2cb2:	a0a9                	j	2cfc <ck_usart_irqhandler+0xb2>
            ck_usart_intr_threshold_empty(idx, usart_priv);
    2cb4:	fec42583          	lw	a1,-20(s0)
    2cb8:	fdc42503          	lw	a0,-36(s0)
    2cbc:	00000097          	auipc	ra,0x0
    2cc0:	c0e080e7          	jalr	-1010(ra) # 28ca <ck_usart_intr_threshold_empty>
            break;
    2cc4:	a82d                	j	2cfe <ck_usart_irqhandler+0xb4>
            ck_usart_intr_char_timeout(idx, usart_priv);
    2cc6:	fec42583          	lw	a1,-20(s0)
    2cca:	fdc42503          	lw	a0,-36(s0)
    2cce:	00000097          	auipc	ra,0x0
    2cd2:	ed4080e7          	jalr	-300(ra) # 2ba2 <ck_usart_intr_char_timeout>
            break;
    2cd6:	a025                	j	2cfe <ck_usart_irqhandler+0xb4>
            ck_usart_intr_recv_line(idx, usart_priv);
    2cd8:	fec42583          	lw	a1,-20(s0)
    2cdc:	fdc42503          	lw	a0,-36(s0)
    2ce0:	00000097          	auipc	ra,0x0
    2ce4:	dac080e7          	jalr	-596(ra) # 2a8c <ck_usart_intr_recv_line>
            break;
    2ce8:	a819                	j	2cfe <ck_usart_irqhandler+0xb4>
            ck_usart_intr_char_timeout(idx, usart_priv);
    2cea:	fec42583          	lw	a1,-20(s0)
    2cee:	fdc42503          	lw	a0,-36(s0)
    2cf2:	00000097          	auipc	ra,0x0
    2cf6:	eb0080e7          	jalr	-336(ra) # 2ba2 <ck_usart_intr_char_timeout>
            break;
    2cfa:	a011                	j	2cfe <ck_usart_irqhandler+0xb4>
            break;
    2cfc:	0001                	nop
    }
}
    2cfe:	0001                	nop
    2d00:	50b2                	lw	ra,44(sp)
    2d02:	5422                	lw	s0,40(sp)
    2d04:	6145                	addi	sp,sp,48
    2d06:	8082                	ret

00002d08 <csi_usart_initialize>:
  \param[in]   idx usart index
  \param[in]   cb_event  Pointer to \ref usart_event_cb_t
  \return      return usart handle if success
*/
usart_handle_t csi_usart_initialize(int32_t idx, usart_event_cb_t cb_event)
{
    2d08:	7139                	addi	sp,sp,-64
    2d0a:	de06                	sw	ra,60(sp)
    2d0c:	dc22                	sw	s0,56(sp)
    2d0e:	0080                	addi	s0,sp,64
    2d10:	fca42623          	sw	a0,-52(s0)
    2d14:	fcb42423          	sw	a1,-56(s0)
    uint32_t base = 0u;
    2d18:	fe042023          	sw	zero,-32(s0)
    uint32_t irq = 0u;
    2d1c:	fc042e23          	sw	zero,-36(s0)
    void *handler;

    int32_t ret = target_usart_init(idx, &base, &irq, &handler);
    2d20:	fd840693          	addi	a3,s0,-40
    2d24:	fdc40713          	addi	a4,s0,-36
    2d28:	fe040793          	addi	a5,s0,-32
    2d2c:	863a                	mv	a2,a4
    2d2e:	85be                	mv	a1,a5
    2d30:	fcc42503          	lw	a0,-52(s0)
    2d34:	00000097          	auipc	ra,0x0
    2d38:	254080e7          	jalr	596(ra) # 2f88 <target_usart_init>
    2d3c:	fea42623          	sw	a0,-20(s0)

    if (ret < 0 || ret >= CONFIG_USART_NUM) {
    2d40:	fec42783          	lw	a5,-20(s0)
    2d44:	0007c663          	bltz	a5,2d50 <csi_usart_initialize+0x48>
    2d48:	fec42783          	lw	a5,-20(s0)
    2d4c:	00f05463          	blez	a5,2d54 <csi_usart_initialize+0x4c>
        return NULL;
    2d50:	4781                	li	a5,0
    2d52:	a041                	j	2dd2 <csi_usart_initialize+0xca>
    }

    ck_usart_priv_t *usart_priv = &usart_instance[idx];
    2d54:	fcc42703          	lw	a4,-52(s0)
    2d58:	87ba                	mv	a5,a4
    2d5a:	078e                	slli	a5,a5,0x3
    2d5c:	8f99                	sub	a5,a5,a4
    2d5e:	078e                	slli	a5,a5,0x3
    2d60:	2000a737          	lui	a4,0x2000a
    2d64:	3cc70713          	addi	a4,a4,972 # 2000a3cc <usart_instance>
    2d68:	97ba                	add	a5,a5,a4
    2d6a:	fef42423          	sw	a5,-24(s0)
    usart_priv->base = base;
    2d6e:	fe042703          	lw	a4,-32(s0)
    2d72:	fe842783          	lw	a5,-24(s0)
    2d76:	c398                	sw	a4,0(a5)
    usart_priv->irq = irq;
    2d78:	fdc42703          	lw	a4,-36(s0)
    2d7c:	fe842783          	lw	a5,-24(s0)
    2d80:	c3d8                	sw	a4,4(a5)
    usart_priv->cb_event = cb_event;
    2d82:	fe842783          	lw	a5,-24(s0)
    2d86:	fc842703          	lw	a4,-56(s0)
    2d8a:	c798                	sw	a4,8(a5)
    usart_priv->idx = idx;
    2d8c:	fe842783          	lw	a5,-24(s0)
    2d90:	fcc42703          	lw	a4,-52(s0)
    2d94:	dbd8                	sw	a4,52(a5)
    ck_usart_reg_t *addr = (ck_usart_reg_t *)(usart_priv->base);
    2d96:	fe842783          	lw	a5,-24(s0)
    2d9a:	439c                	lw	a5,0(a5)
    2d9c:	fef42223          	sw	a5,-28(s0)

    /* enable received data available */
    addr->IER = IER_RDA_INT_ENABLE | IIR_RECV_LINE_ENABLE;
    2da0:	fe442783          	lw	a5,-28(s0)
    2da4:	4715                	li	a4,5
    2da6:	c3d8                	sw	a4,4(a5)
    drv_irq_register(usart_priv->irq, handler);
    2da8:	fe842783          	lw	a5,-24(s0)
    2dac:	43dc                	lw	a5,4(a5)
    2dae:	fd842703          	lw	a4,-40(s0)
    2db2:	85ba                	mv	a1,a4
    2db4:	853e                	mv	a0,a5
    2db6:	fffff097          	auipc	ra,0xfffff
    2dba:	5b0080e7          	jalr	1456(ra) # 2366 <drv_irq_register>
    drv_irq_enable(usart_priv->irq);
    2dbe:	fe842783          	lw	a5,-24(s0)
    2dc2:	43dc                	lw	a5,4(a5)
    2dc4:	853e                	mv	a0,a5
    2dc6:	fffff097          	auipc	ra,0xfffff
    2dca:	572080e7          	jalr	1394(ra) # 2338 <drv_irq_enable>

    return usart_priv;
    2dce:	fe842783          	lw	a5,-24(s0)
}
    2dd2:	853e                	mv	a0,a5
    2dd4:	50f2                	lw	ra,60(sp)
    2dd6:	5462                	lw	s0,56(sp)
    2dd8:	6121                	addi	sp,sp,64
    2dda:	8082                	ret

00002ddc <csi_usart_config>:
                         uint32_t baud,
                         usart_mode_e mode,
                         usart_parity_e parity,
                         usart_stop_bits_e stopbits,
                         usart_data_bits_e bits)
{
    2ddc:	7139                	addi	sp,sp,-64
    2dde:	de06                	sw	ra,60(sp)
    2de0:	dc22                	sw	s0,56(sp)
    2de2:	0080                	addi	s0,sp,64
    2de4:	fca42e23          	sw	a0,-36(s0)
    2de8:	fcb42c23          	sw	a1,-40(s0)
    2dec:	fcc42a23          	sw	a2,-44(s0)
    2df0:	fcd42823          	sw	a3,-48(s0)
    2df4:	fce42623          	sw	a4,-52(s0)
    2df8:	fcf42423          	sw	a5,-56(s0)
    int32_t ret;

    /* control the data_bit of the usart*/
    ret = csi_usart_config_baudrate(handle, baud);
    2dfc:	fd842583          	lw	a1,-40(s0)
    2e00:	fdc42503          	lw	a0,-36(s0)
    2e04:	fffff097          	auipc	ra,0xfffff
    2e08:	5a4080e7          	jalr	1444(ra) # 23a8 <csi_usart_config_baudrate>
    2e0c:	fea42623          	sw	a0,-20(s0)

    if (ret < 0) {
    2e10:	fec42783          	lw	a5,-20(s0)
    2e14:	0007d563          	bgez	a5,2e1e <csi_usart_config+0x42>
        return ret;
    2e18:	fec42783          	lw	a5,-20(s0)
    2e1c:	a071                	j	2ea8 <csi_usart_config+0xcc>
    }

    /* control mode of the usart*/
    ret = csi_usart_config_mode(handle, mode);
    2e1e:	fd442583          	lw	a1,-44(s0)
    2e22:	fdc42503          	lw	a0,-36(s0)
    2e26:	fffff097          	auipc	ra,0xfffff
    2e2a:	69c080e7          	jalr	1692(ra) # 24c2 <csi_usart_config_mode>
    2e2e:	fea42623          	sw	a0,-20(s0)

    if (ret < 0) {
    2e32:	fec42783          	lw	a5,-20(s0)
    2e36:	0007d563          	bgez	a5,2e40 <csi_usart_config+0x64>
        return ret;
    2e3a:	fec42783          	lw	a5,-20(s0)
    2e3e:	a0ad                	j	2ea8 <csi_usart_config+0xcc>
    }

    /* control the parity of the usart*/
    ret = csi_usart_config_parity(handle, parity);
    2e40:	fd042583          	lw	a1,-48(s0)
    2e44:	fdc42503          	lw	a0,-36(s0)
    2e48:	fffff097          	auipc	ra,0xfffff
    2e4c:	6b2080e7          	jalr	1714(ra) # 24fa <csi_usart_config_parity>
    2e50:	fea42623          	sw	a0,-20(s0)

    if (ret < 0) {
    2e54:	fec42783          	lw	a5,-20(s0)
    2e58:	0007d563          	bgez	a5,2e62 <csi_usart_config+0x86>
        return ret;
    2e5c:	fec42783          	lw	a5,-20(s0)
    2e60:	a0a1                	j	2ea8 <csi_usart_config+0xcc>
    }

    /* control the stopbit of the usart*/
    ret = csi_usart_config_stopbits(handle, stopbits);
    2e62:	fcc42583          	lw	a1,-52(s0)
    2e66:	fdc42503          	lw	a0,-36(s0)
    2e6a:	fffff097          	auipc	ra,0xfffff
    2e6e:	794080e7          	jalr	1940(ra) # 25fe <csi_usart_config_stopbits>
    2e72:	fea42623          	sw	a0,-20(s0)

    if (ret < 0) {
    2e76:	fec42783          	lw	a5,-20(s0)
    2e7a:	0007d563          	bgez	a5,2e84 <csi_usart_config+0xa8>
        return ret;
    2e7e:	fec42783          	lw	a5,-20(s0)
    2e82:	a01d                	j	2ea8 <csi_usart_config+0xcc>
    }

    ret = csi_usart_config_databits(handle, bits);
    2e84:	fc842583          	lw	a1,-56(s0)
    2e88:	fdc42503          	lw	a0,-36(s0)
    2e8c:	00000097          	auipc	ra,0x0
    2e90:	830080e7          	jalr	-2000(ra) # 26bc <csi_usart_config_databits>
    2e94:	fea42623          	sw	a0,-20(s0)

    if (ret < 0) {
    2e98:	fec42783          	lw	a5,-20(s0)
    2e9c:	0007d563          	bgez	a5,2ea6 <csi_usart_config+0xca>
        return ret;
    2ea0:	fec42783          	lw	a5,-20(s0)
    2ea4:	a011                	j	2ea8 <csi_usart_config+0xcc>
    }

    return 0;
    2ea6:	4781                	li	a5,0
}
    2ea8:	853e                	mv	a0,a5
    2eaa:	50f2                	lw	ra,60(sp)
    2eac:	5462                	lw	s0,56(sp)
    2eae:	6121                	addi	sp,sp,64
    2eb0:	8082                	ret

00002eb2 <csi_usart_set_interrupt>:
  \param[in]   type \ref usart_intr_type_e.
  \param[in]   flag 0-OFF, 1-ON.
  \return      error code
*/
int32_t csi_usart_set_interrupt(usart_handle_t handle, usart_intr_type_e type, int32_t flag)
{
    2eb2:	7179                	addi	sp,sp,-48
    2eb4:	d622                	sw	s0,44(sp)
    2eb6:	1800                	addi	s0,sp,48
    2eb8:	fca42e23          	sw	a0,-36(s0)
    2ebc:	fcb42c23          	sw	a1,-40(s0)
    2ec0:	fcc42a23          	sw	a2,-44(s0)
    USART_NULL_PARAM_CHK(handle);
    2ec4:	fdc42783          	lw	a5,-36(s0)
    2ec8:	e791                	bnez	a5,2ed4 <csi_usart_set_interrupt+0x22>
    2eca:	810207b7          	lui	a5,0x81020
    2ece:	08478793          	addi	a5,a5,132 # 81020084 <__heap_end+0x61000084>
    2ed2:	a07d                	j	2f80 <csi_usart_set_interrupt+0xce>

    ck_usart_priv_t *usart_priv = handle;
    2ed4:	fdc42783          	lw	a5,-36(s0)
    2ed8:	fef42623          	sw	a5,-20(s0)
    ck_usart_reg_t *addr = (ck_usart_reg_t *)(usart_priv->base);
    2edc:	fec42783          	lw	a5,-20(s0)
    2ee0:	439c                	lw	a5,0(a5)
    2ee2:	fef42423          	sw	a5,-24(s0)

    switch (type) {
    2ee6:	fd842783          	lw	a5,-40(s0)
    2eea:	c799                	beqz	a5,2ef8 <csi_usart_set_interrupt+0x46>
    2eec:	fd842703          	lw	a4,-40(s0)
    2ef0:	4785                	li	a5,1
    2ef2:	04f70263          	beq	a4,a5,2f36 <csi_usart_set_interrupt+0x84>
    2ef6:	a8bd                	j	2f74 <csi_usart_set_interrupt+0xc2>
        case USART_INTR_WRITE:
            if (flag == 0) {
    2ef8:	fd442783          	lw	a5,-44(s0)
    2efc:	eb91                	bnez	a5,2f10 <csi_usart_set_interrupt+0x5e>
                addr->IER &= ~IER_THRE_INT_ENABLE;
    2efe:	fe842783          	lw	a5,-24(s0)
    2f02:	43dc                	lw	a5,4(a5)
    2f04:	ffd7f713          	andi	a4,a5,-3
    2f08:	fe842783          	lw	a5,-24(s0)
    2f0c:	c3d8                	sw	a4,4(a5)
                addr->IER |= IER_THRE_INT_ENABLE;
            } else {
                return ERR_USART(DRV_ERROR_PARAMETER);
            }

            break;
    2f0e:	a885                	j	2f7e <csi_usart_set_interrupt+0xcc>
            } else if (flag == 1) {
    2f10:	fd442703          	lw	a4,-44(s0)
    2f14:	4785                	li	a5,1
    2f16:	00f71b63          	bne	a4,a5,2f2c <csi_usart_set_interrupt+0x7a>
                addr->IER |= IER_THRE_INT_ENABLE;
    2f1a:	fe842783          	lw	a5,-24(s0)
    2f1e:	43dc                	lw	a5,4(a5)
    2f20:	0027e713          	ori	a4,a5,2
    2f24:	fe842783          	lw	a5,-24(s0)
    2f28:	c3d8                	sw	a4,4(a5)
            break;
    2f2a:	a891                	j	2f7e <csi_usart_set_interrupt+0xcc>
                return ERR_USART(DRV_ERROR_PARAMETER);
    2f2c:	810207b7          	lui	a5,0x81020
    2f30:	08478793          	addi	a5,a5,132 # 81020084 <__heap_end+0x61000084>
    2f34:	a0b1                	j	2f80 <csi_usart_set_interrupt+0xce>

        case USART_INTR_READ:
            if (flag == 0) {
    2f36:	fd442783          	lw	a5,-44(s0)
    2f3a:	eb91                	bnez	a5,2f4e <csi_usart_set_interrupt+0x9c>
                addr->IER &= ~IER_RDA_INT_ENABLE;
    2f3c:	fe842783          	lw	a5,-24(s0)
    2f40:	43dc                	lw	a5,4(a5)
    2f42:	ffe7f713          	andi	a4,a5,-2
    2f46:	fe842783          	lw	a5,-24(s0)
    2f4a:	c3d8                	sw	a4,4(a5)
                addr->IER |= IER_RDA_INT_ENABLE;
            } else {
                return ERR_USART(DRV_ERROR_PARAMETER);
            }

            break;
    2f4c:	a80d                	j	2f7e <csi_usart_set_interrupt+0xcc>
            } else if (flag == 1) {
    2f4e:	fd442703          	lw	a4,-44(s0)
    2f52:	4785                	li	a5,1
    2f54:	00f71b63          	bne	a4,a5,2f6a <csi_usart_set_interrupt+0xb8>
                addr->IER |= IER_RDA_INT_ENABLE;
    2f58:	fe842783          	lw	a5,-24(s0)
    2f5c:	43dc                	lw	a5,4(a5)
    2f5e:	0017e713          	ori	a4,a5,1
    2f62:	fe842783          	lw	a5,-24(s0)
    2f66:	c3d8                	sw	a4,4(a5)
            break;
    2f68:	a819                	j	2f7e <csi_usart_set_interrupt+0xcc>
                return ERR_USART(DRV_ERROR_PARAMETER);
    2f6a:	810207b7          	lui	a5,0x81020
    2f6e:	08478793          	addi	a5,a5,132 # 81020084 <__heap_end+0x61000084>
    2f72:	a039                	j	2f80 <csi_usart_set_interrupt+0xce>

        default:
            return ERR_USART(DRV_ERROR_PARAMETER);
    2f74:	810207b7          	lui	a5,0x81020
    2f78:	08478793          	addi	a5,a5,132 # 81020084 <__heap_end+0x61000084>
    2f7c:	a011                	j	2f80 <csi_usart_set_interrupt+0xce>

    }

    return 0;
    2f7e:	4781                	li	a5,0
}
    2f80:	853e                	mv	a0,a5
    2f82:	5432                	lw	s0,44(sp)
    2f84:	6145                	addi	sp,sp,48
    2f86:	8082                	ret

00002f88 <target_usart_init>:
const sg_usart_config[CONFIG_USART_NUM] = {
    {CSKY_UART_BASE, UART_IRQn, USART_IRQHandler},
};

int32_t target_usart_init(int32_t idx, uint32_t *base, uint32_t *irq, void **handler)
{
    2f88:	1101                	addi	sp,sp,-32
    2f8a:	ce22                	sw	s0,28(sp)
    2f8c:	1000                	addi	s0,sp,32
    2f8e:	fea42623          	sw	a0,-20(s0)
    2f92:	feb42423          	sw	a1,-24(s0)
    2f96:	fec42223          	sw	a2,-28(s0)
    2f9a:	fed42023          	sw	a3,-32(s0)
    if (idx >= CONFIG_USART_NUM) {
    2f9e:	fec42783          	lw	a5,-20(s0)
    2fa2:	00f05463          	blez	a5,2faa <target_usart_init+0x22>
        return -1;
    2fa6:	57fd                	li	a5,-1
    2fa8:	a08d                	j	300a <target_usart_init+0x82>
    }

    if (base != NULL) {
    2faa:	fe842783          	lw	a5,-24(s0)
    2fae:	c385                	beqz	a5,2fce <target_usart_init+0x46>
        *base = sg_usart_config[idx].base;
    2fb0:	000087b7          	lui	a5,0x8
    2fb4:	53478693          	addi	a3,a5,1332 # 8534 <sg_usart_config>
    2fb8:	fec42703          	lw	a4,-20(s0)
    2fbc:	87ba                	mv	a5,a4
    2fbe:	0786                	slli	a5,a5,0x1
    2fc0:	97ba                	add	a5,a5,a4
    2fc2:	078a                	slli	a5,a5,0x2
    2fc4:	97b6                	add	a5,a5,a3
    2fc6:	4398                	lw	a4,0(a5)
    2fc8:	fe842783          	lw	a5,-24(s0)
    2fcc:	c398                	sw	a4,0(a5)
    }

    if (irq != NULL) {
    2fce:	fe442783          	lw	a5,-28(s0)
    2fd2:	c385                	beqz	a5,2ff2 <target_usart_init+0x6a>
        *irq = sg_usart_config[idx].irq;
    2fd4:	000087b7          	lui	a5,0x8
    2fd8:	53478693          	addi	a3,a5,1332 # 8534 <sg_usart_config>
    2fdc:	fec42703          	lw	a4,-20(s0)
    2fe0:	87ba                	mv	a5,a4
    2fe2:	0786                	slli	a5,a5,0x1
    2fe4:	97ba                	add	a5,a5,a4
    2fe6:	078a                	slli	a5,a5,0x2
    2fe8:	97b6                	add	a5,a5,a3
    2fea:	43d8                	lw	a4,4(a5)
    2fec:	fe442783          	lw	a5,-28(s0)
    2ff0:	c398                	sw	a4,0(a5)
    }

    if (handler != NULL) {
    2ff2:	fe042783          	lw	a5,-32(s0)
    2ff6:	cb81                	beqz	a5,3006 <target_usart_init+0x7e>
        *handler = sg_usart_config[idx].handler;
    2ff8:	000037b7          	lui	a5,0x3
    2ffc:	6ca78713          	addi	a4,a5,1738 # 36ca <USART_IRQHandler>
    3000:	fe042783          	lw	a5,-32(s0)
    3004:	c398                	sw	a4,0(a5)
    }

    return idx;
    3006:	fec42783          	lw	a5,-20(s0)
}
    300a:	853e                	mv	a0,a5
    300c:	4472                	lw	s0,28(sp)
    300e:	6105                	addi	sp,sp,32
    3010:	8082                	ret

00003012 <target_get_timer_count>:
    {CSKY_TIMER11_BASE, TIM11_IRQn, TIM11_IRQHandler},

};

int32_t target_get_timer_count(void)
{
    3012:	1141                	addi	sp,sp,-16
    3014:	c622                	sw	s0,12(sp)
    3016:	0800                	addi	s0,sp,16
    return CONFIG_TIMER_NUM;
    3018:	47b1                	li	a5,12
}
    301a:	853e                	mv	a0,a5
    301c:	4432                	lw	s0,12(sp)
    301e:	0141                	addi	sp,sp,16
    3020:	8082                	ret

00003022 <target_get_timer>:

int32_t target_get_timer(int32_t idx, uint32_t *base, uint32_t *irq, void **handler)
{
    3022:	1101                	addi	sp,sp,-32
    3024:	ce06                	sw	ra,28(sp)
    3026:	cc22                	sw	s0,24(sp)
    3028:	1000                	addi	s0,sp,32
    302a:	fea42623          	sw	a0,-20(s0)
    302e:	feb42423          	sw	a1,-24(s0)
    3032:	fec42223          	sw	a2,-28(s0)
    3036:	fed42023          	sw	a3,-32(s0)
    if (idx >= target_get_timer_count()) {
    303a:	00000097          	auipc	ra,0x0
    303e:	fd8080e7          	jalr	-40(ra) # 3012 <target_get_timer_count>
    3042:	872a                	mv	a4,a0
    3044:	fec42783          	lw	a5,-20(s0)
    3048:	00e7c463          	blt	a5,a4,3050 <target_get_timer+0x2e>
        return -1;
    304c:	57fd                	li	a5,-1
    304e:	a88d                	j	30c0 <target_get_timer+0x9e>
    }

    if (base != NULL) {
    3050:	fe842783          	lw	a5,-24(s0)
    3054:	c385                	beqz	a5,3074 <target_get_timer+0x52>
        *base = sg_timer_config[idx].base;
    3056:	000087b7          	lui	a5,0x8
    305a:	54078693          	addi	a3,a5,1344 # 8540 <sg_timer_config>
    305e:	fec42703          	lw	a4,-20(s0)
    3062:	87ba                	mv	a5,a4
    3064:	0786                	slli	a5,a5,0x1
    3066:	97ba                	add	a5,a5,a4
    3068:	078a                	slli	a5,a5,0x2
    306a:	97b6                	add	a5,a5,a3
    306c:	4398                	lw	a4,0(a5)
    306e:	fe842783          	lw	a5,-24(s0)
    3072:	c398                	sw	a4,0(a5)
    }

    if (irq != NULL) {
    3074:	fe442783          	lw	a5,-28(s0)
    3078:	c385                	beqz	a5,3098 <target_get_timer+0x76>
        *irq = sg_timer_config[idx].irq;
    307a:	000087b7          	lui	a5,0x8
    307e:	54078693          	addi	a3,a5,1344 # 8540 <sg_timer_config>
    3082:	fec42703          	lw	a4,-20(s0)
    3086:	87ba                	mv	a5,a4
    3088:	0786                	slli	a5,a5,0x1
    308a:	97ba                	add	a5,a5,a4
    308c:	078a                	slli	a5,a5,0x2
    308e:	97b6                	add	a5,a5,a3
    3090:	43d8                	lw	a4,4(a5)
    3092:	fe442783          	lw	a5,-28(s0)
    3096:	c398                	sw	a4,0(a5)
    }

    if (handler != NULL) {
    3098:	fe042783          	lw	a5,-32(s0)
    309c:	c385                	beqz	a5,30bc <target_get_timer+0x9a>
        *handler = sg_timer_config[idx].handler;
    309e:	000087b7          	lui	a5,0x8
    30a2:	54078693          	addi	a3,a5,1344 # 8540 <sg_timer_config>
    30a6:	fec42703          	lw	a4,-20(s0)
    30aa:	87ba                	mv	a5,a4
    30ac:	0786                	slli	a5,a5,0x1
    30ae:	97ba                	add	a5,a5,a4
    30b0:	078a                	slli	a5,a5,0x2
    30b2:	97b6                	add	a5,a5,a3
    30b4:	4798                	lw	a4,8(a5)
    30b6:	fe042783          	lw	a5,-32(s0)
    30ba:	c398                	sw	a4,0(a5)
    }

    return idx;
    30bc:	fec42783          	lw	a5,-20(s0)
}
    30c0:	853e                	mv	a0,a5
    30c2:	40f2                	lw	ra,28(sp)
    30c4:	4462                	lw	s0,24(sp)
    30c6:	6105                	addi	sp,sp,32
    30c8:	8082                	ret

000030ca <timer_deactive_control>:
/**
  \brief      Make all the timers in the idle state.
  \param[in]  pointer to timer register base
*/
static void timer_deactive_control(dw_timer_reg_t *addr)
{
    30ca:	1101                	addi	sp,sp,-32
    30cc:	ce22                	sw	s0,28(sp)
    30ce:	1000                	addi	s0,sp,32
    30d0:	fea42623          	sw	a0,-20(s0)
    /* stop the corresponding timer */
    addr->TxControl &= ~DW_TIMER_TXCONTROL_ENABLE;
    30d4:	fec42783          	lw	a5,-20(s0)
    30d8:	479c                	lw	a5,8(a5)
    30da:	1007b78b          	extu	a5,a5,4,0
    30de:	0ff7f793          	andi	a5,a5,255
    30e2:	8bf9                	andi	a5,a5,30
    30e4:	0ff7f713          	andi	a4,a5,255
    30e8:	fec42783          	lw	a5,-20(s0)
    30ec:	01f77613          	andi	a2,a4,31
    30f0:	0087c703          	lbu	a4,8(a5)
    30f4:	9b01                	andi	a4,a4,-32
    30f6:	86ba                	mv	a3,a4
    30f8:	8732                	mv	a4,a2
    30fa:	8f55                	or	a4,a4,a3
    30fc:	00e78423          	sb	a4,8(a5)
    /* Disable interrupt. */
    addr->TxControl |= DW_TIMER_TXCONTROL_INTMASK;
    3100:	fec42783          	lw	a5,-20(s0)
    3104:	479c                	lw	a5,8(a5)
    3106:	1007b78b          	extu	a5,a5,4,0
    310a:	0ff7f793          	andi	a5,a5,255
    310e:	0047e793          	ori	a5,a5,4
    3112:	0ff7f713          	andi	a4,a5,255
    3116:	fec42783          	lw	a5,-20(s0)
    311a:	01f77613          	andi	a2,a4,31
    311e:	0087c703          	lbu	a4,8(a5)
    3122:	9b01                	andi	a4,a4,-32
    3124:	86ba                	mv	a3,a4
    3126:	8732                	mv	a4,a2
    3128:	8f55                	or	a4,a4,a3
    312a:	00e78423          	sb	a4,8(a5)
}
    312e:	0001                	nop
    3130:	4472                	lw	s0,28(sp)
    3132:	6105                	addi	sp,sp,32
    3134:	8082                	ret

00003136 <dw_timer_irqhandler>:

void dw_timer_irqhandler(int idx)
{
    3136:	7179                	addi	sp,sp,-48
    3138:	d606                	sw	ra,44(sp)
    313a:	d422                	sw	s0,40(sp)
    313c:	1800                	addi	s0,sp,48
    313e:	fca42e23          	sw	a0,-36(s0)
    dw_timer_priv_t *timer_priv = &timer_instance[idx];
    3142:	fdc42703          	lw	a4,-36(s0)
    3146:	87ba                	mv	a5,a4
    3148:	0786                	slli	a5,a5,0x1
    314a:	97ba                	add	a5,a5,a4
    314c:	078e                	slli	a5,a5,0x3
    314e:	2000a737          	lui	a4,0x2000a
    3152:	40470713          	addi	a4,a4,1028 # 2000a404 <timer_instance>
    3156:	97ba                	add	a5,a5,a4
    3158:	fef42623          	sw	a5,-20(s0)
    timer_priv->timeout_flag = 1;
    315c:	fec42783          	lw	a5,-20(s0)
    3160:	4705                	li	a4,1
    3162:	cbd8                	sw	a4,20(a5)

    dw_timer_reg_t *addr = (dw_timer_reg_t *)(timer_priv->base);
    3164:	fec42783          	lw	a5,-20(s0)
    3168:	43dc                	lw	a5,4(a5)
    316a:	fef42423          	sw	a5,-24(s0)

    addr->TxEOI;
    316e:	fe842783          	lw	a5,-24(s0)
    3172:	47dc                	lw	a5,12(a5)
    3174:	0007b78b          	extu	a5,a5,0,0

    if (timer_priv->cb_event) {
    3178:	fec42783          	lw	a5,-20(s0)
    317c:	47dc                	lw	a5,12(a5)
    317e:	cb81                	beqz	a5,318e <dw_timer_irqhandler+0x58>
        return timer_priv->cb_event(idx, TIMER_EVENT_TIMEOUT);
    3180:	fec42783          	lw	a5,-20(s0)
    3184:	47dc                	lw	a5,12(a5)
    3186:	4581                	li	a1,0
    3188:	fdc42503          	lw	a0,-36(s0)
    318c:	9782                	jalr	a5
    }

}
    318e:	50b2                	lw	ra,44(sp)
    3190:	5422                	lw	s0,40(sp)
    3192:	6145                	addi	sp,sp,48
    3194:	8082                	ret

00003196 <csi_timer_initialize>:
  \param[in]   idx  instance timer index
  \param[in]   cb_event  Pointer to \ref timer_event_cb_t
  \return      pointer to timer instance
*/
timer_handle_t csi_timer_initialize(int32_t idx, timer_event_cb_t cb_event)
{
    3196:	7139                	addi	sp,sp,-64
    3198:	de06                	sw	ra,60(sp)
    319a:	dc22                	sw	s0,56(sp)
    319c:	0080                	addi	s0,sp,64
    319e:	fca42623          	sw	a0,-52(s0)
    31a2:	fcb42423          	sw	a1,-56(s0)
    if (idx < 0 || idx >= CONFIG_TIMER_NUM) {
    31a6:	fcc42783          	lw	a5,-52(s0)
    31aa:	0007c763          	bltz	a5,31b8 <csi_timer_initialize+0x22>
    31ae:	fcc42703          	lw	a4,-52(s0)
    31b2:	47ad                	li	a5,11
    31b4:	00e7d463          	bge	a5,a4,31bc <csi_timer_initialize+0x26>
        return NULL;
    31b8:	4781                	li	a5,0
    31ba:	a0fd                	j	32a8 <csi_timer_initialize+0x112>
    }

    uint32_t base = 0u;
    31bc:	fe042023          	sw	zero,-32(s0)
    uint32_t irq = 0u;
    31c0:	fc042e23          	sw	zero,-36(s0)
    void *handler;

    int32_t real_idx = target_get_timer(idx, &base, &irq, &handler);
    31c4:	fd840693          	addi	a3,s0,-40
    31c8:	fdc40713          	addi	a4,s0,-36
    31cc:	fe040793          	addi	a5,s0,-32
    31d0:	863a                	mv	a2,a4
    31d2:	85be                	mv	a1,a5
    31d4:	fcc42503          	lw	a0,-52(s0)
    31d8:	00000097          	auipc	ra,0x0
    31dc:	e4a080e7          	jalr	-438(ra) # 3022 <target_get_timer>
    31e0:	fea42623          	sw	a0,-20(s0)

    if (real_idx != idx) {
    31e4:	fec42703          	lw	a4,-20(s0)
    31e8:	fcc42783          	lw	a5,-52(s0)
    31ec:	00f70463          	beq	a4,a5,31f4 <csi_timer_initialize+0x5e>
        return NULL;
    31f0:	4781                	li	a5,0
    31f2:	a85d                	j	32a8 <csi_timer_initialize+0x112>
    }

    dw_timer_priv_t *timer_priv = &timer_instance[idx];
    31f4:	fcc42703          	lw	a4,-52(s0)
    31f8:	87ba                	mv	a5,a4
    31fa:	0786                	slli	a5,a5,0x1
    31fc:	97ba                	add	a5,a5,a4
    31fe:	078e                	slli	a5,a5,0x3
    3200:	2000a737          	lui	a4,0x2000a
    3204:	40470713          	addi	a4,a4,1028 # 2000a404 <timer_instance>
    3208:	97ba                	add	a5,a5,a4
    320a:	fef42423          	sw	a5,-24(s0)
    timer_priv->base = base;
    320e:	fe042703          	lw	a4,-32(s0)
    3212:	fe842783          	lw	a5,-24(s0)
    3216:	c3d8                	sw	a4,4(a5)
    timer_priv->irq  = irq;
    3218:	fdc42703          	lw	a4,-36(s0)
    321c:	fe842783          	lw	a5,-24(s0)
    3220:	c798                	sw	a4,8(a5)
    timer_priv->idx = idx;
    3222:	fcc42783          	lw	a5,-52(s0)
    3226:	0ff7f713          	andi	a4,a5,255
    322a:	fe842783          	lw	a5,-24(s0)
    322e:	00e78023          	sb	a4,0(a5)

    dw_timer_reg_t *addr = (dw_timer_reg_t *)(timer_priv->base);
    3232:	fe842783          	lw	a5,-24(s0)
    3236:	43dc                	lw	a5,4(a5)
    3238:	fef42223          	sw	a5,-28(s0)
    timer_priv->timeout = DW_TIMER_INIT_DEFAULT_VALUE;
    323c:	4501                	li	a0,0
    323e:	00000097          	auipc	ra,0x0
    3242:	624080e7          	jalr	1572(ra) # 3862 <drv_get_timer_freq>
    3246:	87aa                	mv	a5,a0
    3248:	873e                	mv	a4,a5
    324a:	57fd                	li	a5,-1
    324c:	02e7d733          	divu	a4,a5,a4
    3250:	000f47b7          	lui	a5,0xf4
    3254:	24078793          	addi	a5,a5,576 # f4240 <__min_heap_size+0xe4240>
    3258:	02f70733          	mul	a4,a4,a5
    325c:	fe842783          	lw	a5,-24(s0)
    3260:	cb98                	sw	a4,16(a5)

#ifdef CONFIG_LPM
    csi_timer_power_control(timer_priv, DRV_POWER_FULL);
#endif

    timer_deactive_control(addr);
    3262:	fe442503          	lw	a0,-28(s0)
    3266:	00000097          	auipc	ra,0x0
    326a:	e64080e7          	jalr	-412(ra) # 30ca <timer_deactive_control>
    timer_priv->cb_event = cb_event;
    326e:	fe842783          	lw	a5,-24(s0)
    3272:	fc842703          	lw	a4,-56(s0)
    3276:	c7d8                	sw	a4,12(a5)

    if (cb_event != NULL) {
    3278:	fc842783          	lw	a5,-56(s0)
    327c:	c785                	beqz	a5,32a4 <csi_timer_initialize+0x10e>
        drv_irq_register(timer_priv->irq, handler);
    327e:	fe842783          	lw	a5,-24(s0)
    3282:	479c                	lw	a5,8(a5)
    3284:	fd842703          	lw	a4,-40(s0)
    3288:	85ba                	mv	a1,a4
    328a:	853e                	mv	a0,a5
    328c:	fffff097          	auipc	ra,0xfffff
    3290:	0da080e7          	jalr	218(ra) # 2366 <drv_irq_register>
        drv_irq_enable(timer_priv->irq);
    3294:	fe842783          	lw	a5,-24(s0)
    3298:	479c                	lw	a5,8(a5)
    329a:	853e                	mv	a0,a5
    329c:	fffff097          	auipc	ra,0xfffff
    32a0:	09c080e7          	jalr	156(ra) # 2338 <drv_irq_enable>
    }

    return (timer_handle_t)timer_priv;
    32a4:	fe842783          	lw	a5,-24(s0)
}
    32a8:	853e                	mv	a0,a5
    32aa:	50f2                	lw	ra,60(sp)
    32ac:	5462                	lw	s0,56(sp)
    32ae:	6121                	addi	sp,sp,64
    32b0:	8082                	ret

000032b2 <csi_timer_config>:
  \param[in]   handle timer handle to operate.
  \param[in]   mode      \ref timer_mode_e
  \return      error code
*/
int32_t csi_timer_config(timer_handle_t handle, timer_mode_e mode)
{
    32b2:	7179                	addi	sp,sp,-48
    32b4:	d622                	sw	s0,44(sp)
    32b6:	1800                	addi	s0,sp,48
    32b8:	fca42e23          	sw	a0,-36(s0)
    32bc:	fcb42c23          	sw	a1,-40(s0)
    TIMER_NULL_PARAM_CHK(handle);
    32c0:	fdc42783          	lw	a5,-36(s0)
    32c4:	e791                	bnez	a5,32d0 <csi_timer_config+0x1e>
    32c6:	810707b7          	lui	a5,0x81070
    32ca:	08478793          	addi	a5,a5,132 # 81070084 <__heap_end+0x61050084>
    32ce:	a87d                	j	338c <csi_timer_config+0xda>

    dw_timer_priv_t *timer_priv = handle;
    32d0:	fdc42783          	lw	a5,-36(s0)
    32d4:	fef42623          	sw	a5,-20(s0)
    dw_timer_reg_t *addr = (dw_timer_reg_t *)(timer_priv->base);
    32d8:	fec42783          	lw	a5,-20(s0)
    32dc:	43dc                	lw	a5,4(a5)
    32de:	fef42423          	sw	a5,-24(s0)

    switch (mode) {
    32e2:	fd842783          	lw	a5,-40(s0)
    32e6:	c799                	beqz	a5,32f4 <csi_timer_config+0x42>
    32e8:	fd842703          	lw	a4,-40(s0)
    32ec:	4785                	li	a5,1
    32ee:	02f70a63          	beq	a4,a5,3322 <csi_timer_config+0x70>
    32f2:	a085                	j	3352 <csi_timer_config+0xa0>
        case TIMER_MODE_FREE_RUNNING:
            addr->TxControl &= ~DW_TIMER_TXCONTROL_MODE;
    32f4:	fe842783          	lw	a5,-24(s0)
    32f8:	479c                	lw	a5,8(a5)
    32fa:	1007b78b          	extu	a5,a5,4,0
    32fe:	0ff7f793          	andi	a5,a5,255
    3302:	8bf5                	andi	a5,a5,29
    3304:	0ff7f713          	andi	a4,a5,255
    3308:	fe842783          	lw	a5,-24(s0)
    330c:	01f77613          	andi	a2,a4,31
    3310:	0087c703          	lbu	a4,8(a5)
    3314:	9b01                	andi	a4,a4,-32
    3316:	86ba                	mv	a3,a4
    3318:	8732                	mv	a4,a2
    331a:	8f55                	or	a4,a4,a3
    331c:	00e78423          	sb	a4,8(a5)
            break;
    3320:	a835                	j	335c <csi_timer_config+0xaa>

        case TIMER_MODE_RELOAD:
            addr->TxControl |= DW_TIMER_TXCONTROL_MODE;
    3322:	fe842783          	lw	a5,-24(s0)
    3326:	479c                	lw	a5,8(a5)
    3328:	1007b78b          	extu	a5,a5,4,0
    332c:	0ff7f793          	andi	a5,a5,255
    3330:	0027e793          	ori	a5,a5,2
    3334:	0ff7f713          	andi	a4,a5,255
    3338:	fe842783          	lw	a5,-24(s0)
    333c:	01f77613          	andi	a2,a4,31
    3340:	0087c703          	lbu	a4,8(a5)
    3344:	9b01                	andi	a4,a4,-32
    3346:	86ba                	mv	a3,a4
    3348:	8732                	mv	a4,a2
    334a:	8f55                	or	a4,a4,a3
    334c:	00e78423          	sb	a4,8(a5)
            break;
    3350:	a031                	j	335c <csi_timer_config+0xaa>

        default:
            return ERR_TIMER(DRV_ERROR_PARAMETER);
    3352:	810707b7          	lui	a5,0x81070
    3356:	08478793          	addi	a5,a5,132 # 81070084 <__heap_end+0x61050084>
    335a:	a80d                	j	338c <csi_timer_config+0xda>
    }

    addr->TxControl |= (DW_TIMER_TXCONTROL_TRIGGER);
    335c:	fe842783          	lw	a5,-24(s0)
    3360:	479c                	lw	a5,8(a5)
    3362:	1007b78b          	extu	a5,a5,4,0
    3366:	0ff7f793          	andi	a5,a5,255
    336a:	0107e793          	ori	a5,a5,16
    336e:	0ff7f713          	andi	a4,a5,255
    3372:	fe842783          	lw	a5,-24(s0)
    3376:	01f77613          	andi	a2,a4,31
    337a:	0087c703          	lbu	a4,8(a5)
    337e:	9b01                	andi	a4,a4,-32
    3380:	86ba                	mv	a3,a4
    3382:	8732                	mv	a4,a2
    3384:	8f55                	or	a4,a4,a3
    3386:	00e78423          	sb	a4,8(a5)

    return 0;
    338a:	4781                	li	a5,0
}
    338c:	853e                	mv	a0,a5
    338e:	5432                	lw	s0,44(sp)
    3390:	6145                	addi	sp,sp,48
    3392:	8082                	ret

00003394 <csi_timer_set_timeout>:
  \param[in]   instance  timer instance to operate.
  \param[in]   timeout the timeout value in microseconds(us).
  \return      error code
*/
int32_t csi_timer_set_timeout(timer_handle_t handle, uint32_t timeout)
{
    3394:	7179                	addi	sp,sp,-48
    3396:	d622                	sw	s0,44(sp)
    3398:	1800                	addi	s0,sp,48
    339a:	fca42e23          	sw	a0,-36(s0)
    339e:	fcb42c23          	sw	a1,-40(s0)
    TIMER_NULL_PARAM_CHK(handle);
    33a2:	fdc42783          	lw	a5,-36(s0)
    33a6:	e791                	bnez	a5,33b2 <csi_timer_set_timeout+0x1e>
    33a8:	810707b7          	lui	a5,0x81070
    33ac:	08478793          	addi	a5,a5,132 # 81070084 <__heap_end+0x61050084>
    33b0:	a819                	j	33c6 <csi_timer_set_timeout+0x32>

    dw_timer_priv_t *timer_priv = handle;
    33b2:	fdc42783          	lw	a5,-36(s0)
    33b6:	fef42623          	sw	a5,-20(s0)
    timer_priv->timeout = timeout;
    33ba:	fec42783          	lw	a5,-20(s0)
    33be:	fd842703          	lw	a4,-40(s0)
    33c2:	cb98                	sw	a4,16(a5)
    return 0;
    33c4:	4781                	li	a5,0
}
    33c6:	853e                	mv	a0,a5
    33c8:	5432                	lw	s0,44(sp)
    33ca:	6145                	addi	sp,sp,48
    33cc:	8082                	ret

000033ce <csi_timer_start>:
  \param[in]   handle timer handle to operate.
  \return      error code
*/

int32_t csi_timer_start(timer_handle_t handle)
{
    33ce:	7139                	addi	sp,sp,-64
    33d0:	de06                	sw	ra,60(sp)
    33d2:	dc22                	sw	s0,56(sp)
    33d4:	da4a                	sw	s2,52(sp)
    33d6:	d84e                	sw	s3,48(sp)
    33d8:	d652                	sw	s4,44(sp)
    33da:	d456                	sw	s5,40(sp)
    33dc:	d25a                	sw	s6,36(sp)
    33de:	d05e                	sw	s7,32(sp)
    33e0:	0080                	addi	s0,sp,64
    33e2:	fca42623          	sw	a0,-52(s0)
    TIMER_NULL_PARAM_CHK(handle);
    33e6:	fcc42783          	lw	a5,-52(s0)
    33ea:	e791                	bnez	a5,33f6 <csi_timer_start+0x28>
    33ec:	810707b7          	lui	a5,0x81070
    33f0:	08478793          	addi	a5,a5,132 # 81070084 <__heap_end+0x61050084>
    33f4:	aa41                	j	3584 <csi_timer_start+0x1b6>

    dw_timer_priv_t *timer_priv = handle;
    33f6:	fcc42783          	lw	a5,-52(s0)
    33fa:	fcf42c23          	sw	a5,-40(s0)

    timer_priv->timeout_flag = 0;
    33fe:	fd842783          	lw	a5,-40(s0)
    3402:	0007aa23          	sw	zero,20(a5)

    uint32_t min_us = drv_get_timer_freq(timer_priv->idx) / 1000000;
    3406:	fd842783          	lw	a5,-40(s0)
    340a:	0007c783          	lbu	a5,0(a5)
    340e:	853e                	mv	a0,a5
    3410:	00000097          	auipc	ra,0x0
    3414:	452080e7          	jalr	1106(ra) # 3862 <drv_get_timer_freq>
    3418:	872a                	mv	a4,a0
    341a:	000f47b7          	lui	a5,0xf4
    341e:	24078793          	addi	a5,a5,576 # f4240 <__min_heap_size+0xe4240>
    3422:	02f747b3          	div	a5,a4,a5
    3426:	fcf42a23          	sw	a5,-44(s0)
    uint32_t load;

    if (((timer_priv->timeout * drv_get_timer_freq(timer_priv->idx)) / 1000000) > 0xffffffff) {
    342a:	fd842783          	lw	a5,-40(s0)
    342e:	0007c783          	lbu	a5,0(a5)
    3432:	853e                	mv	a0,a5
    3434:	00000097          	auipc	ra,0x0
    3438:	42e080e7          	jalr	1070(ra) # 3862 <drv_get_timer_freq>
        return ERR_TIMER(DRV_ERROR_PARAMETER);
    }

    if (min_us) {
    343c:	fd442783          	lw	a5,-44(s0)
    3440:	cb99                	beqz	a5,3456 <csi_timer_start+0x88>
        load = (uint32_t)(timer_priv->timeout * min_us);
    3442:	fd842783          	lw	a5,-40(s0)
    3446:	4b9c                	lw	a5,16(a5)
    3448:	fd442703          	lw	a4,-44(s0)
    344c:	02f707b3          	mul	a5,a4,a5
    3450:	fcf42e23          	sw	a5,-36(s0)
    3454:	a8b1                	j	34b0 <csi_timer_start+0xe2>
    } else {
        load = (uint32_t)(((uint64_t)(timer_priv->timeout) * drv_get_timer_freq(timer_priv->idx)) / 1000000);
    3456:	fd842783          	lw	a5,-40(s0)
    345a:	4b9c                	lw	a5,16(a5)
    345c:	8a3e                	mv	s4,a5
    345e:	4a81                	li	s5,0
    3460:	fd842783          	lw	a5,-40(s0)
    3464:	0007c783          	lbu	a5,0(a5)
    3468:	853e                	mv	a0,a5
    346a:	00000097          	auipc	ra,0x0
    346e:	3f8080e7          	jalr	1016(ra) # 3862 <drv_get_timer_freq>
    3472:	87aa                	mv	a5,a0
    3474:	893e                	mv	s2,a5
    3476:	87fd                	srai	a5,a5,0x1f
    3478:	89be                	mv	s3,a5
    347a:	032a8733          	mul	a4,s5,s2
    347e:	034987b3          	mul	a5,s3,s4
    3482:	97ba                	add	a5,a5,a4
    3484:	032a0733          	mul	a4,s4,s2
    3488:	032a3bb3          	mulhu	s7,s4,s2
    348c:	8b3a                	mv	s6,a4
    348e:	97de                	add	a5,a5,s7
    3490:	8bbe                	mv	s7,a5
    3492:	000f4637          	lui	a2,0xf4
    3496:	24060613          	addi	a2,a2,576 # f4240 <__min_heap_size+0xe4240>
    349a:	4681                	li	a3,0
    349c:	855a                	mv	a0,s6
    349e:	85de                	mv	a1,s7
    34a0:	ffffd097          	auipc	ra,0xffffd
    34a4:	d3e080e7          	jalr	-706(ra) # 1de <__udivdi3>
    34a8:	872a                	mv	a4,a0
    34aa:	87ae                	mv	a5,a1
    34ac:	fce42e23          	sw	a4,-36(s0)
    }

    dw_timer_reg_t *addr = (dw_timer_reg_t *)(timer_priv->base);
    34b0:	fd842783          	lw	a5,-40(s0)
    34b4:	43dc                	lw	a5,4(a5)
    34b6:	fcf42823          	sw	a5,-48(s0)

    if (timer_priv->timeout == 0) {
    34ba:	fd842783          	lw	a5,-40(s0)
    34be:	4b9c                	lw	a5,16(a5)
    34c0:	e791                	bnez	a5,34cc <csi_timer_start+0xfe>
        addr->TxLoadCount = 0xffffffff;                           /* load time(us) */
    34c2:	fd042783          	lw	a5,-48(s0)
    34c6:	577d                	li	a4,-1
    34c8:	c398                	sw	a4,0(a5)
    34ca:	a80d                	j	34fc <csi_timer_start+0x12e>
    } else {
        if ((addr->TxControl | 0x2) == 0x2) {
    34cc:	fd042783          	lw	a5,-48(s0)
    34d0:	479c                	lw	a5,8(a5)
    34d2:	1007b78b          	extu	a5,a5,4,0
    34d6:	0ff7f793          	andi	a5,a5,255
    34da:	0027e793          	ori	a5,a5,2
    34de:	0ff7f713          	andi	a4,a5,255
    34e2:	4789                	li	a5,2
    34e4:	00f71763          	bne	a4,a5,34f2 <csi_timer_start+0x124>
            addr->TxLoadCount = 0xffffffff;                           /* load time(us) */
    34e8:	fd042783          	lw	a5,-48(s0)
    34ec:	577d                	li	a4,-1
    34ee:	c398                	sw	a4,0(a5)
    34f0:	a031                	j	34fc <csi_timer_start+0x12e>
        } else {
            addr->TxLoadCount = load;                           /* load time(us) */
    34f2:	fd042783          	lw	a5,-48(s0)
    34f6:	fdc42703          	lw	a4,-36(s0)
    34fa:	c398                	sw	a4,0(a5)
        }
    }

    addr->TxControl &= ~DW_TIMER_TXCONTROL_ENABLE;      /* disable the timer */
    34fc:	fd042783          	lw	a5,-48(s0)
    3500:	479c                	lw	a5,8(a5)
    3502:	1007b78b          	extu	a5,a5,4,0
    3506:	0ff7f793          	andi	a5,a5,255
    350a:	8bf9                	andi	a5,a5,30
    350c:	0ff7f713          	andi	a4,a5,255
    3510:	fd042783          	lw	a5,-48(s0)
    3514:	01f77613          	andi	a2,a4,31
    3518:	0087c703          	lbu	a4,8(a5)
    351c:	9b01                	andi	a4,a4,-32
    351e:	86ba                	mv	a3,a4
    3520:	8732                	mv	a4,a2
    3522:	8f55                	or	a4,a4,a3
    3524:	00e78423          	sb	a4,8(a5)
    addr->TxControl |= DW_TIMER_TXCONTROL_ENABLE;       /* enable the corresponding timer */
    3528:	fd042783          	lw	a5,-48(s0)
    352c:	479c                	lw	a5,8(a5)
    352e:	1007b78b          	extu	a5,a5,4,0
    3532:	0ff7f793          	andi	a5,a5,255
    3536:	0017e793          	ori	a5,a5,1
    353a:	0ff7f713          	andi	a4,a5,255
    353e:	fd042783          	lw	a5,-48(s0)
    3542:	01f77613          	andi	a2,a4,31
    3546:	0087c703          	lbu	a4,8(a5)
    354a:	9b01                	andi	a4,a4,-32
    354c:	86ba                	mv	a3,a4
    354e:	8732                	mv	a4,a2
    3550:	8f55                	or	a4,a4,a3
    3552:	00e78423          	sb	a4,8(a5)
    addr->TxControl &= ~DW_TIMER_TXCONTROL_INTMASK;     /* enable interrupt */
    3556:	fd042783          	lw	a5,-48(s0)
    355a:	479c                	lw	a5,8(a5)
    355c:	1007b78b          	extu	a5,a5,4,0
    3560:	0ff7f793          	andi	a5,a5,255
    3564:	8bed                	andi	a5,a5,27
    3566:	0ff7f713          	andi	a4,a5,255
    356a:	fd042783          	lw	a5,-48(s0)
    356e:	01f77613          	andi	a2,a4,31
    3572:	0087c703          	lbu	a4,8(a5)
    3576:	9b01                	andi	a4,a4,-32
    3578:	86ba                	mv	a3,a4
    357a:	8732                	mv	a4,a2
    357c:	8f55                	or	a4,a4,a3
    357e:	00e78423          	sb	a4,8(a5)
        addr->TxControl &= ~DW_TIMER_TXCONTROL_INTMASK;     /* enable interrupt */
    }

#endif

    return 0;
    3582:	4781                	li	a5,0
}
    3584:	853e                	mv	a0,a5
    3586:	50f2                	lw	ra,60(sp)
    3588:	5462                	lw	s0,56(sp)
    358a:	5952                	lw	s2,52(sp)
    358c:	59c2                	lw	s3,48(sp)
    358e:	5a32                	lw	s4,44(sp)
    3590:	5aa2                	lw	s5,40(sp)
    3592:	5b12                	lw	s6,36(sp)
    3594:	5b82                	lw	s7,32(sp)
    3596:	6121                	addi	sp,sp,64
    3598:	8082                	ret

0000359a <csi_timer_get_current_value>:
  \param[in]   handle timer handle to operate.
  \param[out]   value     timer current value
  \return      error code
*/
int32_t csi_timer_get_current_value(timer_handle_t handle, uint32_t *value)
{
    359a:	7179                	addi	sp,sp,-48
    359c:	d622                	sw	s0,44(sp)
    359e:	1800                	addi	s0,sp,48
    35a0:	fca42e23          	sw	a0,-36(s0)
    35a4:	fcb42c23          	sw	a1,-40(s0)
    TIMER_NULL_PARAM_CHK(handle);
    35a8:	fdc42783          	lw	a5,-36(s0)
    35ac:	e791                	bnez	a5,35b8 <csi_timer_get_current_value+0x1e>
    35ae:	810707b7          	lui	a5,0x81070
    35b2:	08478793          	addi	a5,a5,132 # 81070084 <__heap_end+0x61050084>
    35b6:	a80d                	j	35e8 <csi_timer_get_current_value+0x4e>
    TIMER_NULL_PARAM_CHK(value);
    35b8:	fd842783          	lw	a5,-40(s0)
    35bc:	e791                	bnez	a5,35c8 <csi_timer_get_current_value+0x2e>
    35be:	810707b7          	lui	a5,0x81070
    35c2:	08478793          	addi	a5,a5,132 # 81070084 <__heap_end+0x61050084>
    35c6:	a00d                	j	35e8 <csi_timer_get_current_value+0x4e>

    dw_timer_priv_t *timer_priv = handle;
    35c8:	fdc42783          	lw	a5,-36(s0)
    35cc:	fef42623          	sw	a5,-20(s0)
    dw_timer_reg_t *addr = (dw_timer_reg_t *)(timer_priv->base);
    35d0:	fec42783          	lw	a5,-20(s0)
    35d4:	43dc                	lw	a5,4(a5)
    35d6:	fef42423          	sw	a5,-24(s0)

    *value = addr->TxCurrentValue;
    35da:	fe842783          	lw	a5,-24(s0)
    35de:	43d8                	lw	a4,4(a5)
    35e0:	fd842783          	lw	a5,-40(s0)
    35e4:	c398                	sw	a4,0(a5)
    return 0;
    35e6:	4781                	li	a5,0
}
    35e8:	853e                	mv	a0,a5
    35ea:	5432                	lw	s0,44(sp)
    35ec:	6145                	addi	sp,sp,48
    35ee:	8082                	ret

000035f0 <csi_coret_config>:
  \note    When the variable <b>__Vendor_SysTickConfig</b> is set to 1, then the
           function <b>SysTick_Config</b> is not included. In this case, the file <b><i>device</i>.h</b>
           must contain a vendor-specific implementation of this function.
 */
__STATIC_INLINE uint32_t csi_coret_config(uint32_t ticks, int32_t IRQn)
{
    35f0:	1101                	addi	sp,sp,-32
    35f2:	ce22                	sw	s0,28(sp)
    35f4:	1000                	addi	s0,sp,32
    35f6:	fea42623          	sw	a0,-20(s0)
    35fa:	feb42423          	sw	a1,-24(s0)
    if ((CORET->MTIMECMP != 0) && (CORET->MTIMECMP != 0xffffffffffffffff)) {
    35fe:	e00047b7          	lui	a5,0xe0004
    3602:	4390                	lw	a2,0(a5)
    3604:	43d4                	lw	a3,4(a5)
    3606:	87b2                	mv	a5,a2
    3608:	8fd5                	or	a5,a5,a3
    360a:	c7b1                	beqz	a5,3656 <csi_coret_config+0x66>
    360c:	e00047b7          	lui	a5,0xe0004
    3610:	4398                	lw	a4,0(a5)
    3612:	43dc                	lw	a5,4(a5)
    3614:	863a                	mv	a2,a4
    3616:	56fd                	li	a3,-1
    3618:	00d61663          	bne	a2,a3,3624 <csi_coret_config+0x34>
    361c:	873e                	mv	a4,a5
    361e:	57fd                	li	a5,-1
    3620:	02f70b63          	beq	a4,a5,3656 <csi_coret_config+0x66>
        CORET->MTIMECMP = CORET->MTIMECMP + ticks;
    3624:	e00047b7          	lui	a5,0xe0004
    3628:	4398                	lw	a4,0(a5)
    362a:	43dc                	lw	a5,4(a5)
    362c:	fec42683          	lw	a3,-20(s0)
    3630:	8336                	mv	t1,a3
    3632:	4381                	li	t2,0
    3634:	e00045b7          	lui	a1,0xe0004
    3638:	00670633          	add	a2,a4,t1
    363c:	8532                	mv	a0,a2
    363e:	00e53533          	sltu	a0,a0,a4
    3642:	007786b3          	add	a3,a5,t2
    3646:	00d507b3          	add	a5,a0,a3
    364a:	86be                	mv	a3,a5
    364c:	8732                	mv	a4,a2
    364e:	87b6                	mv	a5,a3
    3650:	c198                	sw	a4,0(a1)
    3652:	c1dc                	sw	a5,4(a1)
    3654:	a82d                	j	368e <csi_coret_config+0x9e>
    } else {
        CORET->MTIMECMP = CORET->MTIME + ticks;
    3656:	e0004737          	lui	a4,0xe0004
    365a:	67a1                	lui	a5,0x8
    365c:	97ba                	add	a5,a5,a4
    365e:	ff87a703          	lw	a4,-8(a5) # 7ff8 <uart_process_frame+0x1bc>
    3662:	ffc7a783          	lw	a5,-4(a5)
    3666:	fec42683          	lw	a3,-20(s0)
    366a:	8836                	mv	a6,a3
    366c:	4881                	li	a7,0
    366e:	e00045b7          	lui	a1,0xe0004
    3672:	01070633          	add	a2,a4,a6
    3676:	8532                	mv	a0,a2
    3678:	00e53533          	sltu	a0,a0,a4
    367c:	011786b3          	add	a3,a5,a7
    3680:	00d507b3          	add	a5,a0,a3
    3684:	86be                	mv	a3,a5
    3686:	8732                	mv	a4,a2
    3688:	87b6                	mv	a5,a3
    368a:	c198                	sw	a4,0(a1)
    368c:	c1dc                	sw	a5,4(a1)
    }
    return (0UL);
    368e:	4781                	li	a5,0
}
    3690:	853e                	mv	a0,a5
    3692:	4472                	lw	s0,28(sp)
    3694:	6105                	addi	sp,sp,32
    3696:	8082                	ret

00003698 <CORET_IRQHandler>:
#define  CSI_INTRPT_ENTER()
#define  CSI_INTRPT_EXIT()
#endif

ATTRIBUTE_ISR void CORET_IRQHandler(void)
{
    3698:	0040000b          	ipush
    369c:	1161                	addi	sp,sp,-8
    369e:	c222                	sw	s0,4(sp)
    36a0:	0880                	addi	s0,sp,80
#ifndef CONFIG_KERNEL_FREERTOS
    CSI_INTRPT_ENTER();
#endif

    csi_coret_config(drv_get_sys_freq() / CONFIG_SYSTICK_HZ, CORET_IRQn);
    36a2:	00000097          	auipc	ra,0x0
    36a6:	1aa080e7          	jalr	426(ra) # 384c <drv_get_sys_freq>
    36aa:	872a                	mv	a4,a0
    36ac:	06400793          	li	a5,100
    36b0:	02f747b3          	div	a5,a4,a5
    36b4:	459d                	li	a1,7
    36b6:	853e                	mv	a0,a5
    36b8:	00000097          	auipc	ra,0x0
    36bc:	f38080e7          	jalr	-200(ra) # 35f0 <csi_coret_config>
#endif

#ifndef CONFIG_KERNEL_FREERTOS
    CSI_INTRPT_EXIT();
#endif
}
    36c0:	0001                	nop
    36c2:	4412                	lw	s0,4(sp)
    36c4:	0121                	addi	sp,sp,8
    36c6:	0050000b          	ipop

000036ca <USART_IRQHandler>:

ATTRIBUTE_ISR void USART_IRQHandler(void)
{
    36ca:	0040000b          	ipush
    36ce:	1161                	addi	sp,sp,-8
    36d0:	c222                	sw	s0,4(sp)
    36d2:	0880                	addi	s0,sp,80
    CSI_INTRPT_ENTER();
    ck_usart_irqhandler(0);
    36d4:	4501                	li	a0,0
    36d6:	fffff097          	auipc	ra,0xfffff
    36da:	574080e7          	jalr	1396(ra) # 2c4a <ck_usart_irqhandler>
    CSI_INTRPT_EXIT();
}
    36de:	0001                	nop
    36e0:	4412                	lw	s0,4(sp)
    36e2:	0121                	addi	sp,sp,8
    36e4:	0050000b          	ipop

000036e8 <TIM0_IRQHandler>:

ATTRIBUTE_ISR void TIM0_IRQHandler(void)
{
    36e8:	0040000b          	ipush
    36ec:	1161                	addi	sp,sp,-8
    36ee:	c222                	sw	s0,4(sp)
    36f0:	0880                	addi	s0,sp,80
    CSI_INTRPT_ENTER();
    dw_timer_irqhandler(0);
    36f2:	4501                	li	a0,0
    36f4:	00000097          	auipc	ra,0x0
    36f8:	a42080e7          	jalr	-1470(ra) # 3136 <dw_timer_irqhandler>
    CSI_INTRPT_EXIT();
}
    36fc:	0001                	nop
    36fe:	4412                	lw	s0,4(sp)
    3700:	0121                	addi	sp,sp,8
    3702:	0050000b          	ipop

00003706 <TIM1_IRQHandler>:

ATTRIBUTE_ISR void TIM1_IRQHandler(void)
{
    3706:	0040000b          	ipush
    370a:	1161                	addi	sp,sp,-8
    370c:	c222                	sw	s0,4(sp)
    370e:	0880                	addi	s0,sp,80
    CSI_INTRPT_ENTER();
    dw_timer_irqhandler(1);
    3710:	4505                	li	a0,1
    3712:	00000097          	auipc	ra,0x0
    3716:	a24080e7          	jalr	-1500(ra) # 3136 <dw_timer_irqhandler>
    CSI_INTRPT_EXIT();
}
    371a:	0001                	nop
    371c:	4412                	lw	s0,4(sp)
    371e:	0121                	addi	sp,sp,8
    3720:	0050000b          	ipop

00003724 <TIM2_IRQHandler>:
ATTRIBUTE_ISR void TIM2_IRQHandler(void)
{
    3724:	0040000b          	ipush
    3728:	1161                	addi	sp,sp,-8
    372a:	c222                	sw	s0,4(sp)
    372c:	0880                	addi	s0,sp,80
    CSI_INTRPT_ENTER();
    dw_timer_irqhandler(2);
    372e:	4509                	li	a0,2
    3730:	00000097          	auipc	ra,0x0
    3734:	a06080e7          	jalr	-1530(ra) # 3136 <dw_timer_irqhandler>
    CSI_INTRPT_EXIT();
}
    3738:	0001                	nop
    373a:	4412                	lw	s0,4(sp)
    373c:	0121                	addi	sp,sp,8
    373e:	0050000b          	ipop

00003742 <TIM3_IRQHandler>:

ATTRIBUTE_ISR void TIM3_IRQHandler(void)
{
    3742:	0040000b          	ipush
    3746:	1161                	addi	sp,sp,-8
    3748:	c222                	sw	s0,4(sp)
    374a:	0880                	addi	s0,sp,80
    CSI_INTRPT_ENTER();
    dw_timer_irqhandler(3);
    374c:	450d                	li	a0,3
    374e:	00000097          	auipc	ra,0x0
    3752:	9e8080e7          	jalr	-1560(ra) # 3136 <dw_timer_irqhandler>
    CSI_INTRPT_EXIT();
}
    3756:	0001                	nop
    3758:	4412                	lw	s0,4(sp)
    375a:	0121                	addi	sp,sp,8
    375c:	0050000b          	ipop

00003760 <TIM4_NMIHandler>:

ATTRIBUTE_ISR void TIM4_NMIHandler(void)
{
    3760:	0040000b          	ipush
    3764:	1161                	addi	sp,sp,-8
    3766:	c222                	sw	s0,4(sp)
    3768:	0880                	addi	s0,sp,80
    dw_timer_irqhandler(4);
    376a:	4511                	li	a0,4
    376c:	00000097          	auipc	ra,0x0
    3770:	9ca080e7          	jalr	-1590(ra) # 3136 <dw_timer_irqhandler>
}
    3774:	0001                	nop
    3776:	4412                	lw	s0,4(sp)
    3778:	0121                	addi	sp,sp,8
    377a:	0050000b          	ipop

0000377e <TIM6_IRQHandler>:

ATTRIBUTE_ISR void TIM6_IRQHandler(void)
{
    377e:	0040000b          	ipush
    3782:	1161                	addi	sp,sp,-8
    3784:	c222                	sw	s0,4(sp)
    3786:	0880                	addi	s0,sp,80
    CSI_INTRPT_ENTER();
    dw_timer_irqhandler(6);
    3788:	4519                	li	a0,6
    378a:	00000097          	auipc	ra,0x0
    378e:	9ac080e7          	jalr	-1620(ra) # 3136 <dw_timer_irqhandler>
    CSI_INTRPT_EXIT();
}
    3792:	0001                	nop
    3794:	4412                	lw	s0,4(sp)
    3796:	0121                	addi	sp,sp,8
    3798:	0050000b          	ipop

0000379c <TIM7_IRQHandler>:

ATTRIBUTE_ISR void TIM7_IRQHandler(void)
{
    379c:	0040000b          	ipush
    37a0:	1161                	addi	sp,sp,-8
    37a2:	c222                	sw	s0,4(sp)
    37a4:	0880                	addi	s0,sp,80
    dw_timer_irqhandler(7);
    37a6:	451d                	li	a0,7
    37a8:	00000097          	auipc	ra,0x0
    37ac:	98e080e7          	jalr	-1650(ra) # 3136 <dw_timer_irqhandler>
}
    37b0:	0001                	nop
    37b2:	4412                	lw	s0,4(sp)
    37b4:	0121                	addi	sp,sp,8
    37b6:	0050000b          	ipop

000037ba <TIM8_IRQHandler>:

ATTRIBUTE_ISR void TIM8_IRQHandler(void)
{
    37ba:	0040000b          	ipush
    37be:	1161                	addi	sp,sp,-8
    37c0:	c222                	sw	s0,4(sp)
    37c2:	0880                	addi	s0,sp,80
    CSI_INTRPT_ENTER();
    dw_timer_irqhandler(8);
    37c4:	4521                	li	a0,8
    37c6:	00000097          	auipc	ra,0x0
    37ca:	970080e7          	jalr	-1680(ra) # 3136 <dw_timer_irqhandler>
    CSI_INTRPT_EXIT();
}
    37ce:	0001                	nop
    37d0:	4412                	lw	s0,4(sp)
    37d2:	0121                	addi	sp,sp,8
    37d4:	0050000b          	ipop

000037d8 <TIM9_IRQHandler>:

ATTRIBUTE_ISR void TIM9_IRQHandler(void)
{
